
test.axf:     file format elf32-bigmips


Disassembly of section .text:

40000000 <_entry>:
40000000:	3c054000 	lui	a1,0x4000
40000004:	24a52e1c 	addiu	a1,a1,11804
40000008:	3c044000 	lui	a0,0x4000
4000000c:	24842eb0 	addiu	a0,a0,11952
40000010:	3c1c4001 	lui	gp,0x4001
40000014:	279cae00 	addiu	gp,gp,-20992
40000018:	3c1d5000 	lui	sp,0x5000
4000001c:	27bdfffc 	addiu	sp,sp,-4
40000020:	aca00000 	sw	zero,0(a1)
40000024:	00a4182a 	slt	v1,a1,a0
40000028:	24a50004 	addiu	a1,a1,4
4000002c:	1460fffc 	bnez	v1,40000020 <_entry+0x20>
40000030:	00000000 	nop
40000034:	3c1b4000 	lui	k1,0x4000
40000038:	277b0100 	addiu	k1,k1,256
4000003c:	3c1af000 	lui	k0,0xf000
40000040:	af5b0000 	sw	k1,0(k0)
40000044:	0c0002ca 	jal	40000b28 <main>
40000048:	00000000 	nop
4000004c:	3c1ae000 	lui	k0,0xe000
40000050:	af400000 	sw	zero,0(k0)
40000054:	1000ffff 	b	40000054 <_entry+0x54>
40000058:	00000000 	nop
	...

40000100 <_isr>:
40000100:	00000000 	nop
40000104:	27bdff98 	addiu	sp,sp,-104
40000108:	afa10010 	sw	at,16(sp)
4000010c:	afa20014 	sw	v0,20(sp)
40000110:	afa30018 	sw	v1,24(sp)
40000114:	afa4001c 	sw	a0,28(sp)
40000118:	afa50020 	sw	a1,32(sp)
4000011c:	afa60024 	sw	a2,36(sp)
40000120:	afa70028 	sw	a3,40(sp)
40000124:	afa8002c 	sw	t0,44(sp)
40000128:	afa90030 	sw	t1,48(sp)
4000012c:	afaa0034 	sw	t2,52(sp)
40000130:	afab0038 	sw	t3,56(sp)
40000134:	afac003c 	sw	t4,60(sp)
40000138:	afad0040 	sw	t5,64(sp)
4000013c:	afae0044 	sw	t6,68(sp)
40000140:	afaf0048 	sw	t7,72(sp)
40000144:	afb8004c 	sw	t8,76(sp)
40000148:	afb90050 	sw	t9,80(sp)
4000014c:	afbf0054 	sw	ra,84(sp)
40000150:	3c1af000 	lui	k0,0xf000
40000154:	375a0040 	ori	k0,k0,0x40
40000158:	8f5a0000 	lw	k0,0(k0)
4000015c:	275afffc 	addiu	k0,k0,-4
40000160:	afba0058 	sw	k0,88(sp)
40000164:	0000d810 	mfhi	k1
40000168:	afbb005c 	sw	k1,92(sp)
4000016c:	0000d812 	mflo	k1
40000170:	afbb0060 	sw	k1,96(sp)
40000174:	3c05f000 	lui	a1,0xf000
40000178:	8ca40010 	lw	a0,16(a1)
4000017c:	8ca60020 	lw	a2,32(a1)
40000180:	00862024 	and	a0,a0,a2
40000184:	0c000954 	jal	40002550 <interrupt_handler>
40000188:	27a50000 	addiu	a1,sp,0
4000018c:	8fa10010 	lw	at,16(sp)
40000190:	8fa20014 	lw	v0,20(sp)
40000194:	8fa30018 	lw	v1,24(sp)
40000198:	8fa4001c 	lw	a0,28(sp)
4000019c:	8fa50020 	lw	a1,32(sp)
400001a0:	8fa60024 	lw	a2,36(sp)
400001a4:	8fa70028 	lw	a3,40(sp)
400001a8:	8fa8002c 	lw	t0,44(sp)
400001ac:	8fa90030 	lw	t1,48(sp)
400001b0:	8faa0034 	lw	t2,52(sp)
400001b4:	8fab0038 	lw	t3,56(sp)
400001b8:	8fac003c 	lw	t4,60(sp)
400001bc:	8fad0040 	lw	t5,64(sp)
400001c0:	8fae0044 	lw	t6,68(sp)
400001c4:	8faf0048 	lw	t7,72(sp)
400001c8:	8fb8004c 	lw	t8,76(sp)
400001cc:	8fb90050 	lw	t9,80(sp)
400001d0:	8fbf0054 	lw	ra,84(sp)
400001d4:	8fba0058 	lw	k0,88(sp)
400001d8:	8fbb005c 	lw	k1,92(sp)
400001dc:	03600011 	mthi	k1
400001e0:	8fbb0060 	lw	k1,96(sp)
400001e4:	03600013 	mtlo	k1
400001e8:	27bd0068 	addiu	sp,sp,104
400001ec:	341b0001 	li	k1,0x1
400001f0:	3c1af000 	lui	k0,0xf000
400001f4:	375a0030 	ori	k0,k0,0x30
400001f8:	af5b0000 	sw	k1,0(k0)
400001fc:	8fbafff0 	lw	k0,-16(sp)
40000200:	03400008 	jr	k0
40000204:	00000000 	nop

40000208 <_interrupt_set>:
40000208:	3c1bf000 	lui	k1,0xf000
4000020c:	377b0030 	ori	k1,k1,0x30
40000210:	8f620000 	lw	v0,0(k1)
40000214:	03e00008 	jr	ra
40000218:	af640000 	sw	a0,0(k1)

4000021c <setjmp>:
4000021c:	ac900000 	sw	s0,0(a0)
40000220:	ac910004 	sw	s1,4(a0)
40000224:	ac920008 	sw	s2,8(a0)
40000228:	ac93000c 	sw	s3,12(a0)
4000022c:	ac940010 	sw	s4,16(a0)
40000230:	ac950014 	sw	s5,20(a0)
40000234:	ac960018 	sw	s6,24(a0)
40000238:	ac97001c 	sw	s7,28(a0)
4000023c:	ac9e0020 	sw	s8,32(a0)
40000240:	ac9c0024 	sw	gp,36(a0)
40000244:	ac9d0028 	sw	sp,40(a0)
40000248:	ac9f002c 	sw	ra,44(a0)
4000024c:	03e00008 	jr	ra
40000250:	34020000 	li	v0,0x0

40000254 <longjmp>:
40000254:	8c900000 	lw	s0,0(a0)
40000258:	8c910004 	lw	s1,4(a0)
4000025c:	8c920008 	lw	s2,8(a0)
40000260:	8c93000c 	lw	s3,12(a0)
40000264:	8c940010 	lw	s4,16(a0)
40000268:	8c950014 	lw	s5,20(a0)
4000026c:	8c960018 	lw	s6,24(a0)
40000270:	8c97001c 	lw	s7,28(a0)
40000274:	8c9e0020 	lw	s8,32(a0)
40000278:	8c9c0024 	lw	gp,36(a0)
4000027c:	8c9d0028 	lw	sp,40(a0)
40000280:	8c9f002c 	lw	ra,44(a0)
40000284:	03e00008 	jr	ra
40000288:	34a20000 	ori	v0,a1,0x0

4000028c <cmp_idx>:
4000028c:	10c00005 	beqz	a2,400002a4 <cmp_idx+0x18>
40000290:	2407ff00 	li	a3,-256
40000294:	84830002 	lh	v1,2(a0)
40000298:	84a20002 	lh	v0,2(a1)
4000029c:	03e00008 	jr	ra
400002a0:	00621023 	subu	v0,v1,v0
400002a4:	84830000 	lh	v1,0(a0)
400002a8:	3066ffff 	andi	a2,v1,0xffff
400002ac:	00063202 	srl	a2,a2,0x8
400002b0:	00671824 	and	v1,v1,a3
400002b4:	00c31825 	or	v1,a2,v1
400002b8:	a4830000 	sh	v1,0(a0)
400002bc:	84a20000 	lh	v0,0(a1)
400002c0:	3043ffff 	andi	v1,v0,0xffff
400002c4:	00031a02 	srl	v1,v1,0x8
400002c8:	00471024 	and	v0,v0,a3
400002cc:	00621025 	or	v0,v1,v0
400002d0:	a4a20000 	sh	v0,0(a1)
400002d4:	84830002 	lh	v1,2(a0)
400002d8:	84a20002 	lh	v0,2(a1)
400002dc:	03e00008 	jr	ra
400002e0:	00621023 	subu	v0,v1,v0

400002e4 <calc_func>:
400002e4:	27bdffd0 	addiu	sp,sp,-48
400002e8:	afb0001c 	sw	s0,28(sp)
400002ec:	84900000 	lh	s0,0(a0)
400002f0:	afbf002c 	sw	ra,44(sp)
400002f4:	afb30028 	sw	s3,40(sp)
400002f8:	001011c3 	sra	v0,s0,0x7
400002fc:	30420001 	andi	v0,v0,0x1
40000300:	afb20024 	sw	s2,36(sp)
40000304:	14400036 	bnez	v0,400003e0 <calc_func+0xfc>
40000308:	afb10020 	sw	s1,32(sp)
4000030c:	001010c3 	sra	v0,s0,0x3
40000310:	3042000f 	andi	v0,v0,0xf
40000314:	00a09021 	move	s2,a1
40000318:	32030007 	andi	v1,s0,0x7
4000031c:	00022900 	sll	a1,v0,0x4
40000320:	00809821 	move	s3,a0
40000324:	1060001d 	beqz	v1,4000039c <calc_func+0xb8>
40000328:	00a22825 	or	a1,a1,v0
4000032c:	24020001 	li	v0,1
40000330:	14620033 	bne	v1,v0,40000400 <calc_func+0x11c>
40000334:	00000000 	nop
40000338:	96460038 	lhu	a2,56(s2)
4000033c:	0c0005f2 	jal	400017c8 <core_bench_matrix>
40000340:	26440028 	addiu	a0,s2,40
40000344:	9643003c 	lhu	v1,60(s2)
40000348:	00028c00 	sll	s1,v0,0x10
4000034c:	1060003d 	beqz	v1,40000444 <calc_func+0x160>
40000350:	00118c03 	sra	s1,s1,0x10
40000354:	96450038 	lhu	a1,56(s2)
40000358:	0c000790 	jal	40001e40 <crcu16>
4000035c:	3224ffff 	andi	a0,s1,0xffff
40000360:	2403ff00 	li	v1,-256
40000364:	02031824 	and	v1,s0,v1
40000368:	8fbf002c 	lw	ra,44(sp)
4000036c:	3230007f 	andi	s0,s1,0x7f
40000370:	34630080 	ori	v1,v1,0x80
40000374:	02031825 	or	v1,s0,v1
40000378:	a6420038 	sh	v0,56(s2)
4000037c:	8fb10020 	lw	s1,32(sp)
40000380:	02001021 	move	v0,s0
40000384:	a6630000 	sh	v1,0(s3)
40000388:	8fb20024 	lw	s2,36(sp)
4000038c:	8fb30028 	lw	s3,40(sp)
40000390:	8fb0001c 	lw	s0,28(sp)
40000394:	03e00008 	jr	ra
40000398:	27bd0030 	addiu	sp,sp,48
4000039c:	28a20022 	slti	v0,a1,34
400003a0:	10400019 	beqz	v0,40000408 <calc_func+0x124>
400003a4:	24030022 	li	v1,34
400003a8:	96420038 	lhu	v0,56(s2)
400003ac:	8e440018 	lw	a0,24(s2)
400003b0:	8e450014 	lw	a1,20(s2)
400003b4:	86460000 	lh	a2,0(s2)
400003b8:	86470002 	lh	a3,2(s2)
400003bc:	afa30010 	sw	v1,16(sp)
400003c0:	0c0006f6 	jal	40001bd8 <core_bench_state>
400003c4:	afa20014 	sw	v0,20(sp)
400003c8:	9643003e 	lhu	v1,62(s2)
400003cc:	00028c00 	sll	s1,v0,0x10
400003d0:	1460ffe0 	bnez	v1,40000354 <calc_func+0x70>
400003d4:	00118c03 	sra	s1,s1,0x10
400003d8:	080000d5 	j	40000354 <calc_func+0x70>
400003dc:	a642003e 	sh	v0,62(s2)
400003e0:	8fbf002c 	lw	ra,44(sp)
400003e4:	3202007f 	andi	v0,s0,0x7f
400003e8:	8fb30028 	lw	s3,40(sp)
400003ec:	8fb20024 	lw	s2,36(sp)
400003f0:	8fb10020 	lw	s1,32(sp)
400003f4:	8fb0001c 	lw	s0,28(sp)
400003f8:	03e00008 	jr	ra
400003fc:	27bd0030 	addiu	sp,sp,48
40000400:	080000d5 	j	40000354 <calc_func+0x70>
40000404:	02008821 	move	s1,s0
40000408:	96420038 	lhu	v0,56(s2)
4000040c:	00a01821 	move	v1,a1
40000410:	8e440018 	lw	a0,24(s2)
40000414:	8e450014 	lw	a1,20(s2)
40000418:	86460000 	lh	a2,0(s2)
4000041c:	86470002 	lh	a3,2(s2)
40000420:	afa30010 	sw	v1,16(sp)
40000424:	0c0006f6 	jal	40001bd8 <core_bench_state>
40000428:	afa20014 	sw	v0,20(sp)
4000042c:	9643003e 	lhu	v1,62(s2)
40000430:	00028c00 	sll	s1,v0,0x10
40000434:	1460ffc7 	bnez	v1,40000354 <calc_func+0x70>
40000438:	00118c03 	sra	s1,s1,0x10
4000043c:	080000d5 	j	40000354 <calc_func+0x70>
40000440:	a642003e 	sh	v0,62(s2)
40000444:	080000d5 	j	40000354 <calc_func+0x70>
40000448:	a642003c 	sh	v0,60(s2)

4000044c <cmp_complex>:
4000044c:	27bdffd8 	addiu	sp,sp,-40
40000450:	afb10020 	sw	s1,32(sp)
40000454:	00a08821 	move	s1,a1
40000458:	00c02821 	move	a1,a2
4000045c:	afbf0024 	sw	ra,36(sp)
40000460:	afb0001c 	sw	s0,28(sp)
40000464:	0c0000b9 	jal	400002e4 <calc_func>
40000468:	afa60010 	sw	a2,16(sp)
4000046c:	8fa60010 	lw	a2,16(sp)
40000470:	02202021 	move	a0,s1
40000474:	00408021 	move	s0,v0
40000478:	0c0000b9 	jal	400002e4 <calc_func>
4000047c:	00c02821 	move	a1,a2
40000480:	8fbf0024 	lw	ra,36(sp)
40000484:	02021023 	subu	v0,s0,v0
40000488:	8fb10020 	lw	s1,32(sp)
4000048c:	8fb0001c 	lw	s0,28(sp)
40000490:	03e00008 	jr	ra
40000494:	27bd0028 	addiu	sp,sp,40

40000498 <core_list_find>:
40000498:	84a60002 	lh	a2,2(a1)
4000049c:	04c00012 	bltz	a2,400004e8 <core_list_find+0x50>
400004a0:	00801021 	move	v0,a0
400004a4:	10800020 	beqz	a0,40000528 <core_list_find+0x90>
400004a8:	00000000 	nop
400004ac:	8c830004 	lw	v1,4(a0)
400004b0:	84630002 	lh	v1,2(v1)
400004b4:	14660007 	bne	v1,a2,400004d4 <core_list_find+0x3c>
400004b8:	00000000 	nop
400004bc:	0800014a 	j	40000528 <core_list_find+0x90>
400004c0:	00000000 	nop
400004c4:	8c430004 	lw	v1,4(v0)
400004c8:	84630002 	lh	v1,2(v1)
400004cc:	10660016 	beq	v1,a2,40000528 <core_list_find+0x90>
400004d0:	00000000 	nop
400004d4:	8c420000 	lw	v0,0(v0)
400004d8:	1440fffa 	bnez	v0,400004c4 <core_list_find+0x2c>
400004dc:	00000000 	nop
400004e0:	03e00008 	jr	ra
400004e4:	00000000 	nop
400004e8:	1080000f 	beqz	a0,40000528 <core_list_find+0x90>
400004ec:	00000000 	nop
400004f0:	8c830004 	lw	v1,4(a0)
400004f4:	84a40000 	lh	a0,0(a1)
400004f8:	90630001 	lbu	v1,1(v1)
400004fc:	14640007 	bne	v1,a0,4000051c <core_list_find+0x84>
40000500:	00000000 	nop
40000504:	0800014a 	j	40000528 <core_list_find+0x90>
40000508:	00000000 	nop
4000050c:	8c430004 	lw	v1,4(v0)
40000510:	90630001 	lbu	v1,1(v1)
40000514:	10640004 	beq	v1,a0,40000528 <core_list_find+0x90>
40000518:	00000000 	nop
4000051c:	8c420000 	lw	v0,0(v0)
40000520:	1440fffa 	bnez	v0,4000050c <core_list_find+0x74>
40000524:	00000000 	nop
40000528:	03e00008 	jr	ra
4000052c:	00000000 	nop

40000530 <core_list_mergesort>:
40000530:	27bdffc0 	addiu	sp,sp,-64
40000534:	afb70034 	sw	s7,52(sp)
40000538:	0080b821 	move	s7,a0
4000053c:	afb40028 	sw	s4,40(sp)
40000540:	afb30024 	sw	s3,36(sp)
40000544:	afb20020 	sw	s2,32(sp)
40000548:	afbf003c 	sw	ra,60(sp)
4000054c:	afbe0038 	sw	s8,56(sp)
40000550:	afb60030 	sw	s6,48(sp)
40000554:	afb5002c 	sw	s5,44(sp)
40000558:	afb1001c 	sw	s1,28(sp)
4000055c:	afb00018 	sw	s0,24(sp)
40000560:	00a0a021 	move	s4,a1
40000564:	00c09821 	move	s3,a2
40000568:	12e00039 	beqz	s7,40000650 <core_list_mergesort+0x120>
4000056c:	24120001 	li	s2,1
40000570:	afa00010 	sw	zero,16(sp)
40000574:	00008821 	move	s1,zero
40000578:	0000a821 	move	s5,zero
4000057c:	8fa30010 	lw	v1,16(sp)
40000580:	02e08021 	move	s0,s7
40000584:	0000f021 	move	s8,zero
40000588:	24630001 	addiu	v1,v1,1
4000058c:	afa30010 	sw	v1,16(sp)
40000590:	8e100000 	lw	s0,0(s0)
40000594:	12000003 	beqz	s0,400005a4 <core_list_mergesort+0x74>
40000598:	27de0001 	addiu	s8,s8,1
4000059c:	17d2fffc 	bne	s8,s2,40000590 <core_list_mergesort+0x60>
400005a0:	00000000 	nop
400005a4:	13c00014 	beqz	s8,400005f8 <core_list_mergesort+0xc8>
400005a8:	0240b021 	move	s6,s2
400005ac:	12c0001c 	beqz	s6,40000620 <core_list_mergesort+0xf0>
400005b0:	02e01821 	move	v1,s7
400005b4:	1200001a 	beqz	s0,40000620 <core_list_mergesort+0xf0>
400005b8:	00000000 	nop
400005bc:	8ee40004 	lw	a0,4(s7)
400005c0:	8e050004 	lw	a1,4(s0)
400005c4:	0280f809 	jalr	s4
400005c8:	02603021 	move	a2,s3
400005cc:	18400014 	blez	v0,40000620 <core_list_mergesort+0xf0>
400005d0:	02e01821 	move	v1,s7
400005d4:	02001821 	move	v1,s0
400005d8:	8e100000 	lw	s0,0(s0)
400005dc:	26d6ffff 	addiu	s6,s6,-1
400005e0:	1220000c 	beqz	s1,40000614 <core_list_mergesort+0xe4>
400005e4:	00000000 	nop
400005e8:	ae230000 	sw	v1,0(s1)
400005ec:	00608821 	move	s1,v1
400005f0:	17c0ffee 	bnez	s8,400005ac <core_list_mergesort+0x7c>
400005f4:	00000000 	nop
400005f8:	12c0000c 	beqz	s6,4000062c <core_list_mergesort+0xfc>
400005fc:	00000000 	nop
40000600:	1200000c 	beqz	s0,40000634 <core_list_mergesort+0x104>
40000604:	02001821 	move	v1,s0
40000608:	26d6ffff 	addiu	s6,s6,-1
4000060c:	1620fff6 	bnez	s1,400005e8 <core_list_mergesort+0xb8>
40000610:	8e100000 	lw	s0,0(s0)
40000614:	0060a821 	move	s5,v1
40000618:	0800017c 	j	400005f0 <core_list_mergesort+0xc0>
4000061c:	00608821 	move	s1,v1
40000620:	27deffff 	addiu	s8,s8,-1
40000624:	08000178 	j	400005e0 <core_list_mergesort+0xb0>
40000628:	8ef70000 	lw	s7,0(s7)
4000062c:	1600ffd3 	bnez	s0,4000057c <core_list_mergesort+0x4c>
40000630:	0200b821 	move	s7,s0
40000634:	8fa30010 	lw	v1,16(sp)
40000638:	24020001 	li	v0,1
4000063c:	10620006 	beq	v1,v0,40000658 <core_list_mergesort+0x128>
40000640:	ae200000 	sw	zero,0(s1)
40000644:	02a0b821 	move	s7,s5
40000648:	16e0ffc9 	bnez	s7,40000570 <core_list_mergesort+0x40>
4000064c:	00129040 	sll	s2,s2,0x1
40000650:	ac000000 	sw	zero,0(zero)
40000654:	00000034 	teq	zero,zero
40000658:	8fbf003c 	lw	ra,60(sp)
4000065c:	02a01021 	move	v0,s5
40000660:	8fbe0038 	lw	s8,56(sp)
40000664:	8fb70034 	lw	s7,52(sp)
40000668:	8fb60030 	lw	s6,48(sp)
4000066c:	8fb5002c 	lw	s5,44(sp)
40000670:	8fb40028 	lw	s4,40(sp)
40000674:	8fb30024 	lw	s3,36(sp)
40000678:	8fb20020 	lw	s2,32(sp)
4000067c:	8fb1001c 	lw	s1,28(sp)
40000680:	8fb00018 	lw	s0,24(sp)
40000684:	03e00008 	jr	ra
40000688:	27bd0040 	addiu	sp,sp,64

4000068c <core_bench_list>:
4000068c:	27bdffc0 	addiu	sp,sp,-64
40000690:	afb40028 	sw	s4,40(sp)
40000694:	84940004 	lh	s4,4(a0)
40000698:	afb60030 	sw	s6,48(sp)
4000069c:	0005b400 	sll	s6,a1,0x10
400006a0:	0016b403 	sra	s6,s6,0x10
400006a4:	afb00018 	sw	s0,24(sp)
400006a8:	afbf003c 	sw	ra,60(sp)
400006ac:	afbe0038 	sw	s8,56(sp)
400006b0:	afb70034 	sw	s7,52(sp)
400006b4:	afb5002c 	sw	s5,44(sp)
400006b8:	afb30024 	sw	s3,36(sp)
400006bc:	afb20020 	sw	s2,32(sp)
400006c0:	afb1001c 	sw	s1,28(sp)
400006c4:	afa40040 	sw	a0,64(sp)
400006c8:	8c900024 	lw	s0,36(a0)
400006cc:	1a800085 	blez	s4,400008e4 <core_bench_list+0x258>
400006d0:	a7b60012 	sh	s6,18(sp)
400006d4:	02c0b821 	move	s7,s6
400006d8:	0000f021 	move	s8,zero
400006dc:	0000a821 	move	s5,zero
400006e0:	00009021 	move	s2,zero
400006e4:	00008821 	move	s1,zero
400006e8:	27b30010 	addiu	s3,sp,16
400006ec:	33c200ff 	andi	v0,s8,0xff
400006f0:	02002021 	move	a0,s0
400006f4:	02602821 	move	a1,s3
400006f8:	0c000126 	jal	40000498 <core_list_find>
400006fc:	a7a20010 	sh	v0,16(sp)
40000700:	12000008 	beqz	s0,40000724 <core_bench_list+0x98>
40000704:	00000000 	nop
40000708:	080001c5 	j	40000714 <core_bench_list+0x88>
4000070c:	00002021 	move	a0,zero
40000710:	00608021 	move	s0,v1
40000714:	8e030000 	lw	v1,0(s0)
40000718:	ae040000 	sw	a0,0(s0)
4000071c:	1460fffc 	bnez	v1,40000710 <core_bench_list+0x84>
40000720:	02002021 	move	a0,s0
40000724:	1040001d 	beqz	v0,4000079c <core_bench_list+0x110>
40000728:	00000000 	nop
4000072c:	8c430004 	lw	v1,4(v0)
40000730:	26520001 	addiu	s2,s2,1
40000734:	84630000 	lh	v1,0(v1)
40000738:	30640001 	andi	a0,v1,0x1
4000073c:	10800005 	beqz	a0,40000754 <core_bench_list+0xc8>
40000740:	3252ffff 	andi	s2,s2,0xffff
40000744:	00031a43 	sra	v1,v1,0x9
40000748:	30630001 	andi	v1,v1,0x1
4000074c:	02238821 	addu	s1,s1,v1
40000750:	3231ffff 	andi	s1,s1,0xffff
40000754:	8c430000 	lw	v1,0(v0)
40000758:	10600006 	beqz	v1,40000774 <core_bench_list+0xe8>
4000075c:	00000000 	nop
40000760:	8c640000 	lw	a0,0(v1)
40000764:	ac440000 	sw	a0,0(v0)
40000768:	8e020000 	lw	v0,0(s0)
4000076c:	ac620000 	sw	v0,0(v1)
40000770:	ae030000 	sw	v1,0(s0)
40000774:	06e00002 	bltz	s7,40000780 <core_bench_list+0xf4>
40000778:	26e60001 	addiu	a2,s7,1
4000077c:	a7a60012 	sh	a2,18(sp)
40000780:	27de0001 	addiu	s8,s8,1
40000784:	001ef400 	sll	s8,s8,0x10
40000788:	001ef403 	sra	s8,s8,0x10
4000078c:	129e000c 	beq	s4,s8,400007c0 <core_bench_list+0x134>
40000790:	87b70012 	lh	s7,18(sp)
40000794:	080001bc 	j	400006f0 <core_bench_list+0x64>
40000798:	33c200ff 	andi	v0,s8,0xff
4000079c:	8e020000 	lw	v0,0(s0)
400007a0:	26b50001 	addiu	s5,s5,1
400007a4:	32b5ffff 	andi	s5,s5,0xffff
400007a8:	8c420004 	lw	v0,4(v0)
400007ac:	80420000 	lb	v0,0(v0)
400007b0:	30420001 	andi	v0,v0,0x1
400007b4:	02228821 	addu	s1,s1,v0
400007b8:	080001dd 	j	40000774 <core_bench_list+0xe8>
400007bc:	3231ffff 	andi	s1,s1,0xffff
400007c0:	00129080 	sll	s2,s2,0x2
400007c4:	0255a823 	subu	s5,s2,s5
400007c8:	02358821 	addu	s1,s1,s5
400007cc:	3231ffff 	andi	s1,s1,0xffff
400007d0:	1ac00006 	blez	s6,400007ec <core_bench_list+0x160>
400007d4:	8fa60040 	lw	a2,64(sp)
400007d8:	3c054000 	lui	a1,0x4000
400007dc:	02002021 	move	a0,s0
400007e0:	0c00014c 	jal	40000530 <core_list_mergesort>
400007e4:	24a5044c 	addiu	a1,a1,1100
400007e8:	00408021 	move	s0,v0
400007ec:	8e020000 	lw	v0,0(s0)
400007f0:	02602821 	move	a1,s3
400007f4:	02002021 	move	a0,s0
400007f8:	8c530000 	lw	s3,0(v0)
400007fc:	8c540004 	lw	s4,4(v0)
40000800:	8e660004 	lw	a2,4(s3)
40000804:	8e630000 	lw	v1,0(s3)
40000808:	ac460004 	sw	a2,4(v0)
4000080c:	ae740004 	sw	s4,4(s3)
40000810:	ac430000 	sw	v1,0(v0)
40000814:	0c000126 	jal	40000498 <core_list_find>
40000818:	ae600000 	sw	zero,0(s3)
4000081c:	1040002c 	beqz	v0,400008d0 <core_bench_list+0x244>
40000820:	00409021 	move	s2,v0
40000824:	8e020004 	lw	v0,4(s0)
40000828:	02202821 	move	a1,s1
4000082c:	0c0007c7 	jal	40001f1c <crc16>
40000830:	84440000 	lh	a0,0(v0)
40000834:	8e520000 	lw	s2,0(s2)
40000838:	1640fffa 	bnez	s2,40000824 <core_bench_list+0x198>
4000083c:	00408821 	move	s1,v0
40000840:	8e740004 	lw	s4,4(s3)
40000844:	8e020000 	lw	v0,0(s0)
40000848:	8c440004 	lw	a0,4(v0)
4000084c:	8c430000 	lw	v1,0(v0)
40000850:	3c054000 	lui	a1,0x4000
40000854:	ae640004 	sw	a0,4(s3)
40000858:	24a5028c 	addiu	a1,a1,652
4000085c:	02002021 	move	a0,s0
40000860:	ac540004 	sw	s4,4(v0)
40000864:	00003021 	move	a2,zero
40000868:	ae630000 	sw	v1,0(s3)
4000086c:	0c00014c 	jal	40000530 <core_list_mergesort>
40000870:	ac530000 	sw	s3,0(v0)
40000874:	8c500000 	lw	s0,0(v0)
40000878:	12000008 	beqz	s0,4000089c <core_bench_list+0x210>
4000087c:	00409021 	move	s2,v0
40000880:	8e430004 	lw	v1,4(s2)
40000884:	02202821 	move	a1,s1
40000888:	0c0007c7 	jal	40001f1c <crc16>
4000088c:	84640000 	lh	a0,0(v1)
40000890:	8e100000 	lw	s0,0(s0)
40000894:	1600fffa 	bnez	s0,40000880 <core_bench_list+0x1f4>
40000898:	00408821 	move	s1,v0
4000089c:	8fbf003c 	lw	ra,60(sp)
400008a0:	02201021 	move	v0,s1
400008a4:	8fbe0038 	lw	s8,56(sp)
400008a8:	8fb70034 	lw	s7,52(sp)
400008ac:	8fb60030 	lw	s6,48(sp)
400008b0:	8fb5002c 	lw	s5,44(sp)
400008b4:	8fb40028 	lw	s4,40(sp)
400008b8:	8fb30024 	lw	s3,36(sp)
400008bc:	8fb20020 	lw	s2,32(sp)
400008c0:	8fb1001c 	lw	s1,28(sp)
400008c4:	8fb00018 	lw	s0,24(sp)
400008c8:	03e00008 	jr	ra
400008cc:	27bd0040 	addiu	sp,sp,64
400008d0:	8e120000 	lw	s2,0(s0)
400008d4:	1240ffdc 	beqz	s2,40000848 <core_bench_list+0x1bc>
400008d8:	00001021 	move	v0,zero
400008dc:	0800020a 	j	40000828 <core_bench_list+0x19c>
400008e0:	8e020004 	lw	v0,4(s0)
400008e4:	00008821 	move	s1,zero
400008e8:	080001f4 	j	400007d0 <core_bench_list+0x144>
400008ec:	27b30010 	addiu	s3,sp,16

400008f0 <core_list_init>:
400008f0:	27bdffe0 	addiu	sp,sp,-32
400008f4:	afb10014 	sw	s1,20(sp)
400008f8:	00a08821 	move	s1,a1
400008fc:	24050014 	li	a1,20
40000900:	afb20018 	sw	s2,24(sp)
40000904:	afb00010 	sw	s0,16(sp)
40000908:	afbf001c 	sw	ra,28(sp)
4000090c:	0c00099f 	jal	4000267c <__udivsi3>
40000910:	00069400 	sll	s2,a2,0x10
40000914:	2444fffe 	addiu	a0,v0,-2
40000918:	000458c0 	sll	t3,a0,0x3
4000091c:	022b5821 	addu	t3,s1,t3
40000920:	26230010 	addiu	v1,s1,16
40000924:	00041080 	sll	v0,a0,0x2
40000928:	24068080 	li	a2,-32640
4000092c:	006b282b 	sltu	a1,v1,t3
40000930:	ae200000 	sw	zero,0(s1)
40000934:	ae2b0004 	sw	t3,4(s1)
40000938:	00129403 	sra	s2,s2,0x10
4000093c:	01621021 	addu	v0,t3,v0
40000940:	a5600002 	sh	zero,2(t3)
40000944:	a5660000 	sh	a2,0(t3)
40000948:	26290008 	addiu	t1,s1,8
4000094c:	256a0004 	addiu	t2,t3,4
40000950:	10a00005 	beqz	a1,40000968 <core_list_init+0x78>
40000954:	00008021 	move	s0,zero
40000958:	25650008 	addiu	a1,t3,8
4000095c:	00a2302b 	sltu	a2,a1,v0
40000960:	14c0003f 	bnez	a2,40000a60 <core_list_init+0x170>
40000964:	2406ffff 	li	a2,-1
40000968:	1080001c 	beqz	a0,400009dc <core_list_init+0xec>
4000096c:	324dffff 	andi	t5,s2,0xffff
40000970:	00004021 	move	t0,zero
40000974:	240e7fff 	li	t6,32767
40000978:	25260008 	addiu	a2,t1,8
4000097c:	25450004 	addiu	a1,t2,4
40000980:	00cb182b 	sltu	v1,a2,t3
40000984:	10600012 	beqz	v1,400009d0 <core_list_init+0xe0>
40000988:	00a2602b 	sltu	t4,a1,v0
4000098c:	3103ffff 	andi	v1,t0,0xffff
40000990:	006d3826 	xor	a3,v1,t5
40000994:	30e7000f 	andi	a3,a3,0xf
40000998:	000738c0 	sll	a3,a3,0x3
4000099c:	30630007 	andi	v1,v1,0x7
400009a0:	00e31825 	or	v1,a3,v1
400009a4:	00033a00 	sll	a3,v1,0x8
400009a8:	11800009 	beqz	t4,400009d0 <core_list_init+0xe0>
400009ac:	00e31825 	or	v1,a3,v1
400009b0:	ad300000 	sw	s0,0(t1)
400009b4:	ae290000 	sw	t1,0(s1)
400009b8:	01208021 	move	s0,t1
400009bc:	ad2a0004 	sw	t2,4(t1)
400009c0:	a5430000 	sh	v1,0(t2)
400009c4:	a54e0002 	sh	t6,2(t2)
400009c8:	00c04821 	move	t1,a2
400009cc:	00a05021 	move	t2,a1
400009d0:	25080001 	addiu	t0,t0,1
400009d4:	1488ffe9 	bne	a0,t0,4000097c <core_list_init+0x8c>
400009d8:	25260008 	addiu	a2,t1,8
400009dc:	0c00099f 	jal	4000267c <__udivsi3>
400009e0:	24050005 	li	a1,5
400009e4:	24080001 	li	t0,1
400009e8:	08000281 	j	40000a04 <core_list_init+0x114>
400009ec:	240a0002 	li	t2,2
400009f0:	8e030004 	lw	v1,4(s0)
400009f4:	a4680002 	sh	t0,2(v1)
400009f8:	254a0001 	addiu	t2,t2,1
400009fc:	25080001 	addiu	t0,t0,1
40000a00:	01608021 	move	s0,t3
40000a04:	31430007 	andi	v1,t2,0x7
40000a08:	8e0b0000 	lw	t3,0(s0)
40000a0c:	01124826 	xor	t1,t0,s2
40000a10:	00033a00 	sll	a3,v1,0x8
40000a14:	00e91825 	or	v1,a3,t1
40000a18:	0102202b 	sltu	a0,t0,v0
40000a1c:	11600006 	beqz	t3,40000a38 <core_list_init+0x148>
40000a20:	30633fff 	andi	v1,v1,0x3fff
40000a24:	1480fff2 	bnez	a0,400009f0 <core_list_init+0x100>
40000a28:	00000000 	nop
40000a2c:	8e040004 	lw	a0,4(s0)
40000a30:	0800027e 	j	400009f8 <core_list_init+0x108>
40000a34:	a4830002 	sh	v1,2(a0)
40000a38:	8fbf001c 	lw	ra,28(sp)
40000a3c:	8fb20018 	lw	s2,24(sp)
40000a40:	8fb00010 	lw	s0,16(sp)
40000a44:	02202021 	move	a0,s1
40000a48:	8fb10014 	lw	s1,20(sp)
40000a4c:	3c054000 	lui	a1,0x4000
40000a50:	24a5028c 	addiu	a1,a1,652
40000a54:	00003021 	move	a2,zero
40000a58:	0800014c 	j	40000530 <core_list_mergesort>
40000a5c:	27bd0020 	addiu	sp,sp,32
40000a60:	ae290000 	sw	t1,0(s1)
40000a64:	ae2a000c 	sw	t2,12(s1)
40000a68:	ae200008 	sw	zero,8(s1)
40000a6c:	a5660004 	sh	a2,4(t3)
40000a70:	24067fff 	li	a2,32767
40000a74:	01208021 	move	s0,t1
40000a78:	a5660006 	sh	a2,6(t3)
40000a7c:	00a05021 	move	t2,a1
40000a80:	0800025a 	j	40000968 <core_list_init+0x78>
40000a84:	00604821 	move	t1,v1

40000a88 <iterate>:
40000a88:	27bdffe0 	addiu	sp,sp,-32
40000a8c:	afb20018 	sw	s2,24(sp)
40000a90:	8c92001c 	lw	s2,28(a0)
40000a94:	afb10014 	sw	s1,20(sp)
40000a98:	afb00010 	sw	s0,16(sp)
40000a9c:	afbf001c 	sw	ra,28(sp)
40000aa0:	00808021 	move	s0,a0
40000aa4:	a4800038 	sh	zero,56(a0)
40000aa8:	a480003a 	sh	zero,58(a0)
40000aac:	a480003c 	sh	zero,60(a0)
40000ab0:	a480003e 	sh	zero,62(a0)
40000ab4:	12400013 	beqz	s2,40000b04 <iterate+0x7c>
40000ab8:	00008821 	move	s1,zero
40000abc:	24050001 	li	a1,1
40000ac0:	0c0001a3 	jal	4000068c <core_bench_list>
40000ac4:	02002021 	move	a0,s0
40000ac8:	96050038 	lhu	a1,56(s0)
40000acc:	0c000790 	jal	40001e40 <crcu16>
40000ad0:	00402021 	move	a0,v0
40000ad4:	a6020038 	sh	v0,56(s0)
40000ad8:	2405ffff 	li	a1,-1
40000adc:	0c0001a3 	jal	4000068c <core_bench_list>
40000ae0:	02002021 	move	a0,s0
40000ae4:	96050038 	lhu	a1,56(s0)
40000ae8:	0c000790 	jal	40001e40 <crcu16>
40000aec:	00402021 	move	a0,v0
40000af0:	1220000b 	beqz	s1,40000b20 <iterate+0x98>
40000af4:	a6020038 	sh	v0,56(s0)
40000af8:	26310001 	addiu	s1,s1,1
40000afc:	1632fff0 	bne	s1,s2,40000ac0 <iterate+0x38>
40000b00:	24050001 	li	a1,1
40000b04:	8fbf001c 	lw	ra,28(sp)
40000b08:	8fb20018 	lw	s2,24(sp)
40000b0c:	8fb10014 	lw	s1,20(sp)
40000b10:	8fb00010 	lw	s0,16(sp)
40000b14:	00001021 	move	v0,zero
40000b18:	03e00008 	jr	ra
40000b1c:	27bd0020 	addiu	sp,sp,32
40000b20:	080002be 	j	40000af8 <iterate+0x70>
40000b24:	a602003a 	sh	v0,58(s0)

40000b28 <main>:
40000b28:	27bdf7a8 	addiu	sp,sp,-2136
40000b2c:	00a03021 	move	a2,a1
40000b30:	27a50858 	addiu	a1,sp,2136
40000b34:	afa40858 	sw	a0,2136(sp)
40000b38:	27a40822 	addiu	a0,sp,2082
40000b3c:	afbf0854 	sw	ra,2132(sp)
40000b40:	afbe0850 	sw	s8,2128(sp)
40000b44:	afb7084c 	sw	s7,2124(sp)
40000b48:	afb60848 	sw	s6,2120(sp)
40000b4c:	afb50844 	sw	s5,2116(sp)
40000b50:	afb40840 	sw	s4,2112(sp)
40000b54:	afb3083c 	sw	s3,2108(sp)
40000b58:	afb20838 	sw	s2,2104(sp)
40000b5c:	afb10834 	sw	s1,2100(sp)
40000b60:	0c0009b7 	jal	400026dc <portable_init>
40000b64:	afb00830 	sw	s0,2096(sp)
40000b68:	0c000776 	jal	40001dd8 <get_seed_32>
40000b6c:	24040001 	li	a0,1
40000b70:	24040002 	li	a0,2
40000b74:	0c000776 	jal	40001dd8 <get_seed_32>
40000b78:	a7a207e0 	sh	v0,2016(sp)
40000b7c:	24040003 	li	a0,3
40000b80:	0c000776 	jal	40001dd8 <get_seed_32>
40000b84:	a7a207e2 	sh	v0,2018(sp)
40000b88:	24040004 	li	a0,4
40000b8c:	0c000776 	jal	40001dd8 <get_seed_32>
40000b90:	a7a207e4 	sh	v0,2020(sp)
40000b94:	24040005 	li	a0,5
40000b98:	0c000776 	jal	40001dd8 <get_seed_32>
40000b9c:	afa207fc 	sw	v0,2044(sp)
40000ba0:	14400002 	bnez	v0,40000bac <main+0x84>
40000ba4:	00000000 	nop
40000ba8:	24020007 	li	v0,7
40000bac:	afa20800 	sw	v0,2048(sp)
40000bb0:	8fa207e0 	lw	v0,2016(sp)
40000bb4:	14400086 	bnez	v0,40000dd0 <main+0x2a8>
40000bb8:	3c030001 	lui	v1,0x1
40000bbc:	87a207e4 	lh	v0,2020(sp)
40000bc0:	104000e8 	beqz	v0,40000f64 <main+0x43c>
40000bc4:	24020066 	li	v0,102
40000bc8:	8fb00800 	lw	s0,2048(sp)
40000bcc:	27b20010 	addiu	s2,sp,16
40000bd0:	afb207e8 	sw	s2,2024(sp)
40000bd4:	32130001 	andi	s3,s0,0x1
40000bd8:	32110002 	andi	s1,s0,0x2
40000bdc:	a7a00820 	sh	zero,2080(sp)
40000be0:	12200003 	beqz	s1,40000bf0 <main+0xc8>
40000be4:	02602821 	move	a1,s3
40000be8:	26650001 	addiu	a1,s3,1
40000bec:	30a5ffff 	andi	a1,a1,0xffff
40000bf0:	32020004 	andi	v0,s0,0x4
40000bf4:	10400003 	beqz	v0,40000c04 <main+0xdc>
40000bf8:	00000000 	nop
40000bfc:	24a50001 	addiu	a1,a1,1
40000c00:	30a5ffff 	andi	a1,a1,0xffff
40000c04:	0c00099f 	jal	4000267c <__udivsi3>
40000c08:	240407d0 	li	a0,2000
40000c0c:	00402021 	move	a0,v0
40000c10:	afa207f8 	sw	v0,2040(sp)
40000c14:	27a607e0 	addiu	a2,sp,2016
40000c18:	00001821 	move	v1,zero
40000c1c:	00003821 	move	a3,zero
40000c20:	240a0001 	li	t2,1
40000c24:	24090003 	li	t1,3
40000c28:	006a2804 	sllv	a1,t2,v1
40000c2c:	00b02824 	and	a1,a1,s0
40000c30:	24630001 	addiu	v1,v1,1
40000c34:	10a00007 	beqz	a1,40000c54 <main+0x12c>
40000c38:	24e80001 	addiu	t0,a3,1
40000c3c:	00e40018 	mult	a3,a0
40000c40:	8fa207e8 	lw	v0,2024(sp)
40000c44:	3107ffff 	andi	a3,t0,0xffff
40000c48:	00002812 	mflo	a1
40000c4c:	00451021 	addu	v0,v0,a1
40000c50:	acc2000c 	sw	v0,12(a2)
40000c54:	1469fff4 	bne	v1,t1,40000c28 <main+0x100>
40000c58:	24c60004 	addiu	a2,a2,4
40000c5c:	16600045 	bnez	s3,40000d74 <main+0x24c>
40000c60:	8fa507ec 	lw	a1,2028(sp)
40000c64:	1620004a 	bnez	s1,40000d90 <main+0x268>
40000c68:	87a207e2 	lh	v0,2018(sp)
40000c6c:	32100004 	andi	s0,s0,0x4
40000c70:	16000052 	bnez	s0,40000dbc <main+0x294>
40000c74:	8fa407f8 	lw	a0,2040(sp)
40000c78:	8fa207fc 	lw	v0,2044(sp)
40000c7c:	14400019 	bnez	v0,40000ce4 <main+0x1bc>
40000c80:	24020001 	li	v0,1
40000c84:	afa207fc 	sw	v0,2044(sp)
40000c88:	8fa207fc 	lw	v0,2044(sp)
40000c8c:	00021840 	sll	v1,v0,0x1
40000c90:	000210c0 	sll	v0,v0,0x3
40000c94:	00621021 	addu	v0,v1,v0
40000c98:	0c0009a3 	jal	4000268c <start_time>
40000c9c:	afa207fc 	sw	v0,2044(sp)
40000ca0:	0c0002a2 	jal	40000a88 <iterate>
40000ca4:	27a407e0 	addiu	a0,sp,2016
40000ca8:	0c0009a7 	jal	4000269c <stop_time>
40000cac:	00000000 	nop
40000cb0:	0c0009ab 	jal	400026ac <get_time>
40000cb4:	00000000 	nop
40000cb8:	0c0009af 	jal	400026bc <time_in_secs>
40000cbc:	00402021 	move	a0,v0
40000cc0:	1040fff1 	beqz	v0,40000c88 <main+0x160>
40000cc4:	2404000a 	li	a0,10
40000cc8:	0c00099f 	jal	4000267c <__udivsi3>
40000ccc:	00402821 	move	a1,v0
40000cd0:	8fa307fc 	lw	v1,2044(sp)
40000cd4:	24420001 	addiu	v0,v0,1
40000cd8:	00620018 	mult	v1,v0
40000cdc:	00001812 	mflo	v1
40000ce0:	afa307fc 	sw	v1,2044(sp)
40000ce4:	0c0009a3 	jal	4000268c <start_time>
40000ce8:	00000000 	nop
40000cec:	0c0002a2 	jal	40000a88 <iterate>
40000cf0:	27a407e0 	addiu	a0,sp,2016
40000cf4:	0c0009a7 	jal	4000269c <stop_time>
40000cf8:	00000000 	nop
40000cfc:	0c0009ab 	jal	400026ac <get_time>
40000d00:	00000000 	nop
40000d04:	87a407e0 	lh	a0,2016(sp)
40000d08:	00002821 	move	a1,zero
40000d0c:	0c0007c7 	jal	40001f1c <crc16>
40000d10:	0040b021 	move	s6,v0
40000d14:	87a407e2 	lh	a0,2018(sp)
40000d18:	0c0007c7 	jal	40001f1c <crc16>
40000d1c:	00402821 	move	a1,v0
40000d20:	87a407e4 	lh	a0,2020(sp)
40000d24:	0c0007c7 	jal	40001f1c <crc16>
40000d28:	00402821 	move	a1,v0
40000d2c:	87a407fa 	lh	a0,2042(sp)
40000d30:	0c0007c7 	jal	40001f1c <crc16>
40000d34:	00402821 	move	a1,v0
40000d38:	0040b821 	move	s7,v0
40000d3c:	24027b05 	li	v0,31493
40000d40:	12e20153 	beq	s7,v0,40001290 <main+0x768>
40000d44:	2ee27b06 	sltiu	v0,s7,31494
40000d48:	1040002c 	beqz	v0,40000dfc <main+0x2d4>
40000d4c:	240218f2 	li	v0,6386
40000d50:	12e2014a 	beq	s7,v0,4000127c <main+0x754>
40000d54:	24024eaf 	li	v0,20143
40000d58:	16e20086 	bne	s7,v0,40000f74 <main+0x44c>
40000d5c:	241effff 	li	s8,-1
40000d60:	3c044000 	lui	a0,0x4000
40000d64:	0c00096d 	jal	400025b4 <printf>
40000d68:	2484274c 	addiu	a0,a0,10060
40000d6c:	08000388 	j	40000e20 <main+0x2f8>
40000d70:	24130002 	li	s3,2
40000d74:	0c00023c 	jal	400008f0 <core_list_init>
40000d78:	87a607e0 	lh	a2,2016(sp)
40000d7c:	8fb00800 	lw	s0,2048(sp)
40000d80:	32110002 	andi	s1,s0,0x2
40000d84:	1220ffb9 	beqz	s1,40000c6c <main+0x144>
40000d88:	afa20804 	sw	v0,2052(sp)
40000d8c:	87a207e2 	lh	v0,2018(sp)
40000d90:	87a607e0 	lh	a2,2016(sp)
40000d94:	8fa407f8 	lw	a0,2040(sp)
40000d98:	8fa507f0 	lw	a1,2032(sp)
40000d9c:	00021400 	sll	v0,v0,0x10
40000da0:	00463025 	or	a2,v0,a2
40000da4:	0c0004b3 	jal	400012cc <core_init_matrix>
40000da8:	27a70808 	addiu	a3,sp,2056
40000dac:	8fb00800 	lw	s0,2048(sp)
40000db0:	32100004 	andi	s0,s0,0x4
40000db4:	1200ffb0 	beqz	s0,40000c78 <main+0x150>
40000db8:	8fa407f8 	lw	a0,2040(sp)
40000dbc:	87a507e0 	lh	a1,2016(sp)
40000dc0:	0c000607 	jal	4000181c <core_init_state>
40000dc4:	8fa607f4 	lw	a2,2036(sp)
40000dc8:	0800031f 	j	40000c7c <main+0x154>
40000dcc:	8fa207fc 	lw	v0,2044(sp)
40000dd0:	1443ff7e 	bne	v0,v1,40000bcc <main+0xa4>
40000dd4:	8fb00800 	lw	s0,2048(sp)
40000dd8:	87a207e4 	lh	v0,2020(sp)
40000ddc:	1440ff7c 	bnez	v0,40000bd0 <main+0xa8>
40000de0:	27b20010 	addiu	s2,sp,16
40000de4:	24023415 	li	v0,13333
40000de8:	a7a207e0 	sh	v0,2016(sp)
40000dec:	a7a207e2 	sh	v0,2018(sp)
40000df0:	24020066 	li	v0,102
40000df4:	080002f2 	j	40000bc8 <main+0xa0>
40000df8:	a7a207e4 	sh	v0,2020(sp)
40000dfc:	34028a02 	li	v0,0x8a02
40000e00:	12e20128 	beq	s7,v0,400012a4 <main+0x77c>
40000e04:	3402e9f5 	li	v0,0xe9f5
40000e08:	16e2005a 	bne	s7,v0,40000f74 <main+0x44c>
40000e0c:	241effff 	li	s8,-1
40000e10:	3c044000 	lui	a0,0x4000
40000e14:	0c00096d 	jal	400025b4 <printf>
40000e18:	24842780 	addiu	a0,a0,10112
40000e1c:	24130003 	li	s3,3
40000e20:	8f828010 	lw	v0,-32752(gp)
40000e24:	0000f021 	move	s8,zero
40000e28:	10400052 	beqz	v0,40000f74 <main+0x44c>
40000e2c:	00008021 	move	s0,zero
40000e30:	3c144000 	lui	s4,0x4000
40000e34:	00139840 	sll	s3,s3,0x1
40000e38:	3c154000 	lui	s5,0x4000
40000e3c:	26942c64 	addiu	s4,s4,11364
40000e40:	26b52c70 	addiu	s5,s5,11376
40000e44:	0274a021 	addu	s4,s3,s4
40000e48:	0275a821 	addu	s5,s3,s5
40000e4c:	080003ac 	j	40000eb0 <main+0x388>
40000e50:	afb40828 	sw	s4,2088(sp)
40000e54:	3c024000 	lui	v0,0x4000
40000e58:	24422c58 	addiu	v0,v0,11352
40000e5c:	02621021 	addu	v0,s3,v0
40000e60:	9626080e 	lhu	a2,2062(s1)
40000e64:	94470000 	lhu	a3,0(v0)
40000e68:	10c7003c 	beq	a2,a3,40000f5c <main+0x434>
40000e6c:	3c044000 	lui	a0,0x4000
40000e70:	24842840 	addiu	a0,a0,10304
40000e74:	0c00096d 	jal	400025b4 <printf>
40000e78:	02002821 	move	a1,s0
40000e7c:	96240810 	lhu	a0,2064(s1)
40000e80:	24840001 	addiu	a0,a0,1
40000e84:	00041c00 	sll	v1,a0,0x10
40000e88:	00031c03 	sra	v1,v1,0x10
40000e8c:	a6230810 	sh	v1,2064(s1)
40000e90:	8f828010 	lw	v0,-32752(gp)
40000e94:	26100001 	addiu	s0,s0,1
40000e98:	3210ffff 	andi	s0,s0,0xffff
40000e9c:	007e1821 	addu	v1,v1,s8
40000ea0:	0003f400 	sll	s8,v1,0x10
40000ea4:	0202102b 	sltu	v0,s0,v0
40000ea8:	10400032 	beqz	v0,40000f74 <main+0x44c>
40000eac:	001ef403 	sra	s8,s8,0x10
40000eb0:	00108880 	sll	s1,s0,0x2
40000eb4:	0010a180 	sll	s4,s0,0x6
40000eb8:	02341821 	addu	v1,s1,s4
40000ebc:	02431821 	addu	v1,s2,v1
40000ec0:	8c6207f0 	lw	v0,2032(v1)
40000ec4:	30420001 	andi	v0,v0,0x1
40000ec8:	1040000d 	beqz	v0,40000f00 <main+0x3d8>
40000ecc:	a4600810 	sh	zero,2064(v1)
40000ed0:	9466080a 	lhu	a2,2058(v1)
40000ed4:	96a70000 	lhu	a3,0(s5)
40000ed8:	10c70009 	beq	a2,a3,40000f00 <main+0x3d8>
40000edc:	3c024000 	lui	v0,0x4000
40000ee0:	244427dc 	addiu	a0,v0,10204
40000ee4:	02002821 	move	a1,s0
40000ee8:	0c00096d 	jal	400025b4 <printf>
40000eec:	afa3082c 	sw	v1,2092(sp)
40000ef0:	8fa3082c 	lw	v1,2092(sp)
40000ef4:	94620810 	lhu	v0,2064(v1)
40000ef8:	24420001 	addiu	v0,v0,1
40000efc:	a4620810 	sh	v0,2064(v1)
40000f00:	02344821 	addu	t1,s1,s4
40000f04:	02494821 	addu	t1,s2,t1
40000f08:	8d2207f0 	lw	v0,2032(t1)
40000f0c:	30430002 	andi	v1,v0,0x2
40000f10:	1060000e 	beqz	v1,40000f4c <main+0x424>
40000f14:	8fa30828 	lw	v1,2088(sp)
40000f18:	9526080c 	lhu	a2,2060(t1)
40000f1c:	94670000 	lhu	a3,0(v1)
40000f20:	10c7000a 	beq	a2,a3,40000f4c <main+0x424>
40000f24:	3c044000 	lui	a0,0x4000
40000f28:	2484280c 	addiu	a0,a0,10252
40000f2c:	02002821 	move	a1,s0
40000f30:	0c00096d 	jal	400025b4 <printf>
40000f34:	afa9082c 	sw	t1,2092(sp)
40000f38:	8fa9082c 	lw	t1,2092(sp)
40000f3c:	95230810 	lhu	v1,2064(t1)
40000f40:	8d2207f0 	lw	v0,2032(t1)
40000f44:	24630001 	addiu	v1,v1,1
40000f48:	a5230810 	sh	v1,2064(t1)
40000f4c:	02348821 	addu	s1,s1,s4
40000f50:	30420004 	andi	v0,v0,0x4
40000f54:	1440ffbf 	bnez	v0,40000e54 <main+0x32c>
40000f58:	02518821 	addu	s1,s2,s1
40000f5c:	080003a4 	j	40000e90 <main+0x368>
40000f60:	86230810 	lh	v1,2064(s1)
40000f64:	a7a007e0 	sh	zero,2016(sp)
40000f68:	a7a007e2 	sh	zero,2018(sp)
40000f6c:	080002f2 	j	40000bc8 <main+0xa0>
40000f70:	a7a207e4 	sh	v0,2020(sp)
40000f74:	0c0007ca 	jal	40001f28 <check_data_types>
40000f78:	00000000 	nop
40000f7c:	8fa507f8 	lw	a1,2040(sp)
40000f80:	3c044000 	lui	a0,0x4000
40000f84:	03c21021 	addu	v0,s8,v0
40000f88:	24842870 	addiu	a0,a0,10352
40000f8c:	0c00096d 	jal	400025b4 <printf>
40000f90:	3051ffff 	andi	s1,v0,0xffff
40000f94:	3c044000 	lui	a0,0x4000
40000f98:	02c02821 	move	a1,s6
40000f9c:	0c00096d 	jal	400025b4 <printf>
40000fa0:	24842888 	addiu	a0,a0,10376
40000fa4:	0c0009af 	jal	400026bc <time_in_secs>
40000fa8:	02c02021 	move	a0,s6
40000fac:	3c044000 	lui	a0,0x4000
40000fb0:	248428a0 	addiu	a0,a0,10400
40000fb4:	0c00096d 	jal	400025b4 <printf>
40000fb8:	00402821 	move	a1,v0
40000fbc:	0c0009af 	jal	400026bc <time_in_secs>
40000fc0:	02c02021 	move	a0,s6
40000fc4:	1440009a 	bnez	v0,40001230 <main+0x708>
40000fc8:	8fb007fc 	lw	s0,2044(sp)
40000fcc:	0c0009af 	jal	400026bc <time_in_secs>
40000fd0:	02c02021 	move	a0,s6
40000fd4:	2c42000a 	sltiu	v0,v0,10
40000fd8:	1440008c 	bnez	v0,4000120c <main+0x6e4>
40000fdc:	3c044000 	lui	a0,0x4000
40000fe0:	8f858010 	lw	a1,-32752(gp)
40000fe4:	8fa207fc 	lw	v0,2044(sp)
40000fe8:	3c044000 	lui	a0,0x4000
40000fec:	24842910 	addiu	a0,a0,10512
40000ff0:	00a20018 	mult	a1,v0
40000ff4:	00118c00 	sll	s1,s1,0x10
40000ff8:	00002812 	mflo	a1
40000ffc:	0c00096d 	jal	400025b4 <printf>
40001000:	00118c03 	sra	s1,s1,0x10
40001004:	3c044000 	lui	a0,0x4000
40001008:	3c054000 	lui	a1,0x4000
4000100c:	24842928 	addiu	a0,a0,10536
40001010:	0c00096d 	jal	400025b4 <printf>
40001014:	24a52940 	addiu	a1,a1,10560
40001018:	3c044000 	lui	a0,0x4000
4000101c:	3c054000 	lui	a1,0x4000
40001020:	2484294c 	addiu	a0,a0,10572
40001024:	0c00096d 	jal	400025b4 <printf>
40001028:	24a52964 	addiu	a1,a1,10596
4000102c:	3c044000 	lui	a0,0x4000
40001030:	3c054000 	lui	a1,0x4000
40001034:	24842acc 	addiu	a0,a0,10956
40001038:	0c00096d 	jal	400025b4 <printf>
4000103c:	24a52ae4 	addiu	a1,a1,10980
40001040:	3c044000 	lui	a0,0x4000
40001044:	24842aec 	addiu	a0,a0,10988
40001048:	0c00096d 	jal	400025b4 <printf>
4000104c:	02e02821 	move	a1,s7
40001050:	8fa30800 	lw	v1,2048(sp)
40001054:	30620001 	andi	v0,v1,0x1
40001058:	14400058 	bnez	v0,400011bc <main+0x694>
4000105c:	8f828010 	lw	v0,-32752(gp)
40001060:	30640002 	andi	a0,v1,0x2
40001064:	10800015 	beqz	a0,400010bc <main+0x594>
40001068:	00000000 	nop
4000106c:	1040003c 	beqz	v0,40001160 <main+0x638>
40001070:	00000000 	nop
40001074:	3c134000 	lui	s3,0x4000
40001078:	00008021 	move	s0,zero
4000107c:	26732b24 	addiu	s3,s3,11044
40001080:	00101980 	sll	v1,s0,0x6
40001084:	00101080 	sll	v0,s0,0x2
40001088:	00431021 	addu	v0,v0,v1
4000108c:	02421021 	addu	v0,s2,v0
40001090:	9446080c 	lhu	a2,2060(v0)
40001094:	02002821 	move	a1,s0
40001098:	0c00096d 	jal	400025b4 <printf>
4000109c:	02602021 	move	a0,s3
400010a0:	8f828010 	lw	v0,-32752(gp)
400010a4:	26100001 	addiu	s0,s0,1
400010a8:	3210ffff 	andi	s0,s0,0xffff
400010ac:	0202182b 	sltu	v1,s0,v0
400010b0:	1460fff4 	bnez	v1,40001084 <main+0x55c>
400010b4:	00101980 	sll	v1,s0,0x6
400010b8:	8fa30800 	lw	v1,2048(sp)
400010bc:	30630004 	andi	v1,v1,0x4
400010c0:	10600014 	beqz	v1,40001114 <main+0x5ec>
400010c4:	00000000 	nop
400010c8:	10400025 	beqz	v0,40001160 <main+0x638>
400010cc:	00000000 	nop
400010d0:	3c134000 	lui	s3,0x4000
400010d4:	00008021 	move	s0,zero
400010d8:	26732b40 	addiu	s3,s3,11072
400010dc:	00101980 	sll	v1,s0,0x6
400010e0:	00101080 	sll	v0,s0,0x2
400010e4:	00431021 	addu	v0,v0,v1
400010e8:	02421021 	addu	v0,s2,v0
400010ec:	9446080e 	lhu	a2,2062(v0)
400010f0:	02002821 	move	a1,s0
400010f4:	0c00096d 	jal	400025b4 <printf>
400010f8:	02602021 	move	a0,s3
400010fc:	8f828010 	lw	v0,-32752(gp)
40001100:	26100001 	addiu	s0,s0,1
40001104:	3210ffff 	andi	s0,s0,0xffff
40001108:	0202182b 	sltu	v1,s0,v0
4000110c:	1460fff4 	bnez	v1,400010e0 <main+0x5b8>
40001110:	00101980 	sll	v1,s0,0x6
40001114:	10400012 	beqz	v0,40001160 <main+0x638>
40001118:	00000000 	nop
4000111c:	3c134000 	lui	s3,0x4000
40001120:	00008021 	move	s0,zero
40001124:	26732b5c 	addiu	s3,s3,11100
40001128:	00101180 	sll	v0,s0,0x6
4000112c:	00101880 	sll	v1,s0,0x2
40001130:	00621821 	addu	v1,v1,v0
40001134:	02431821 	addu	v1,s2,v1
40001138:	94660808 	lhu	a2,2056(v1)
4000113c:	02002821 	move	a1,s0
40001140:	0c00096d 	jal	400025b4 <printf>
40001144:	02602021 	move	a0,s3
40001148:	8f828010 	lw	v0,-32752(gp)
4000114c:	26100001 	addiu	s0,s0,1
40001150:	3210ffff 	andi	s0,s0,0xffff
40001154:	0202102b 	sltu	v0,s0,v0
40001158:	1440fff4 	bnez	v0,4000112c <main+0x604>
4000115c:	00101180 	sll	v0,s0,0x6
40001160:	1220002e 	beqz	s1,4000121c <main+0x6f4>
40001164:	00000000 	nop
40001168:	1a20003f 	blez	s1,40001268 <main+0x740>
4000116c:	00000000 	nop
40001170:	3c044000 	lui	a0,0x4000
40001174:	24842bc4 	addiu	a0,a0,11204
40001178:	0c00096d 	jal	400025b4 <printf>
4000117c:	02202821 	move	a1,s1
40001180:	0c0009ba 	jal	400026e8 <portable_fini>
40001184:	27a40822 	addiu	a0,sp,2082
40001188:	8fbf0854 	lw	ra,2132(sp)
4000118c:	8fbe0850 	lw	s8,2128(sp)
40001190:	8fb7084c 	lw	s7,2124(sp)
40001194:	8fb60848 	lw	s6,2120(sp)
40001198:	8fb50844 	lw	s5,2116(sp)
4000119c:	8fb40840 	lw	s4,2112(sp)
400011a0:	8fb3083c 	lw	s3,2108(sp)
400011a4:	8fb20838 	lw	s2,2104(sp)
400011a8:	8fb10834 	lw	s1,2100(sp)
400011ac:	8fb00830 	lw	s0,2096(sp)
400011b0:	00001021 	move	v0,zero
400011b4:	03e00008 	jr	ra
400011b8:	27bd0858 	addiu	sp,sp,2136
400011bc:	1040003e 	beqz	v0,400012b8 <main+0x790>
400011c0:	3c134000 	lui	s3,0x4000
400011c4:	00008021 	move	s0,zero
400011c8:	26732b08 	addiu	s3,s3,11016
400011cc:	00101980 	sll	v1,s0,0x6
400011d0:	00101080 	sll	v0,s0,0x2
400011d4:	00431021 	addu	v0,v0,v1
400011d8:	02421021 	addu	v0,s2,v0
400011dc:	9446080a 	lhu	a2,2058(v0)
400011e0:	02002821 	move	a1,s0
400011e4:	0c00096d 	jal	400025b4 <printf>
400011e8:	02602021 	move	a0,s3
400011ec:	8f828010 	lw	v0,-32752(gp)
400011f0:	26100001 	addiu	s0,s0,1
400011f4:	3210ffff 	andi	s0,s0,0xffff
400011f8:	0202182b 	sltu	v1,s0,v0
400011fc:	1460fff3 	bnez	v1,400011cc <main+0x6a4>
40001200:	8fa30800 	lw	v1,2048(sp)
40001204:	08000419 	j	40001064 <main+0x53c>
40001208:	30640002 	andi	a0,v1,0x2
4000120c:	0c00096d 	jal	400025b4 <printf>
40001210:	248428d0 	addiu	a0,a0,10448
40001214:	080003f8 	j	40000fe0 <main+0x4b8>
40001218:	26310001 	addiu	s1,s1,1
4000121c:	3c044000 	lui	a0,0x4000
40001220:	0c00096d 	jal	400025b4 <printf>
40001224:	24842b78 	addiu	a0,a0,11128
40001228:	08000460 	j	40001180 <main+0x658>
4000122c:	00000000 	nop
40001230:	8f828010 	lw	v0,-32752(gp)
40001234:	00500018 	mult	v0,s0
40001238:	00008012 	mflo	s0
4000123c:	0c0009af 	jal	400026bc <time_in_secs>
40001240:	02c02021 	move	a0,s6
40001244:	00402821 	move	a1,v0
40001248:	0c00099f 	jal	4000267c <__udivsi3>
4000124c:	02002021 	move	a0,s0
40001250:	3c044000 	lui	a0,0x4000
40001254:	248428b8 	addiu	a0,a0,10424
40001258:	0c00096d 	jal	400025b4 <printf>
4000125c:	00402821 	move	a1,v0
40001260:	080003f3 	j	40000fcc <main+0x4a4>
40001264:	00000000 	nop
40001268:	3c044000 	lui	a0,0x4000
4000126c:	0c00096d 	jal	400025b4 <printf>
40001270:	24842bdc 	addiu	a0,a0,11228
40001274:	08000460 	j	40001180 <main+0x658>
40001278:	00000000 	nop
4000127c:	3c044000 	lui	a0,0x4000
40001280:	0c00096d 	jal	400025b4 <printf>
40001284:	248427b0 	addiu	a0,a0,10160
40001288:	08000388 	j	40000e20 <main+0x2f8>
4000128c:	24130004 	li	s3,4
40001290:	3c044000 	lui	a0,0x4000
40001294:	0c00096d 	jal	400025b4 <printf>
40001298:	24842720 	addiu	a0,a0,10016
4000129c:	08000388 	j	40000e20 <main+0x2f8>
400012a0:	24130001 	li	s3,1
400012a4:	3c044000 	lui	a0,0x4000
400012a8:	0c00096d 	jal	400025b4 <printf>
400012ac:	248426f0 	addiu	a0,a0,9968
400012b0:	08000388 	j	40000e20 <main+0x2f8>
400012b4:	00009821 	move	s3,zero
400012b8:	30640002 	andi	a0,v1,0x2
400012bc:	1480ffa8 	bnez	a0,40001160 <main+0x638>
400012c0:	30630004 	andi	v1,v1,0x4
400012c4:	08000430 	j	400010c0 <main+0x598>
400012c8:	00000000 	nop

400012cc <core_init_matrix>:
400012cc:	27bdfff8 	addiu	sp,sp,-8
400012d0:	14c00002 	bnez	a2,400012dc <core_init_matrix+0x10>
400012d4:	afb00004 	sw	s0,4(sp)
400012d8:	24060001 	li	a2,1
400012dc:	10800041 	beqz	a0,400013e4 <core_init_matrix+0x118>
400012e0:	240dfffc 	li	t5,-4
400012e4:	080004bc 	j	400012f0 <core_init_matrix+0x24>
400012e8:	00001021 	move	v0,zero
400012ec:	01001021 	move	v0,t0
400012f0:	24480001 	addiu	t0,v0,1
400012f4:	01080018 	mult	t0,t0
400012f8:	00001812 	mflo	v1
400012fc:	000318c0 	sll	v1,v1,0x3
40001300:	0064182b 	sltu	v1,v1,a0
40001304:	1460fff9 	bnez	v1,400012ec <core_init_matrix+0x20>
40001308:	00420018 	mult	v0,v0
4000130c:	24a5ffff 	addiu	a1,a1,-1
40001310:	240efffc 	li	t6,-4
40001314:	00ae7024 	and	t6,a1,t6
40001318:	25ce0004 	addiu	t6,t6,4
4000131c:	0040c821 	move	t9,v0
40001320:	0000c012 	mflo	t8
40001324:	0018c040 	sll	t8,t8,0x1
40001328:	10400022 	beqz	v0,400013b4 <core_init_matrix+0xe8>
4000132c:	01d86821 	addu	t5,t6,t8
40001330:	00007821 	move	t7,zero
40001334:	240c0001 	li	t4,1
40001338:	01e20018 	mult	t7,v0
4000133c:	01802821 	move	a1,t4
40001340:	00005021 	move	t2,zero
40001344:	00005812 	mflo	t3
40001348:	000b5840 	sll	t3,t3,0x1
4000134c:	30a3ffff 	andi	v1,a1,0xffff
40001350:	00a60018 	mult	a1,a2
40001354:	014b3021 	addu	a2,t2,t3
40001358:	01a68021 	addu	s0,t5,a2
4000135c:	01c64021 	addu	t0,t6,a2
40001360:	24a50001 	addiu	a1,a1,1
40001364:	00ac4823 	subu	t1,a1,t4
40001368:	0122482b 	sltu	t1,t1,v0
4000136c:	254a0002 	addiu	t2,t2,2
40001370:	00002012 	mflo	a0
40001374:	000437c3 	sra	a2,a0,0x1f
40001378:	00063402 	srl	a2,a2,0x10
4000137c:	00862021 	addu	a0,a0,a2
40001380:	3084ffff 	andi	a0,a0,0xffff
40001384:	00863023 	subu	a2,a0,a2
40001388:	00662021 	addu	a0,v1,a2
4000138c:	3084ffff 	andi	a0,a0,0xffff
40001390:	00831821 	addu	v1,a0,v1
40001394:	306300ff 	andi	v1,v1,0xff
40001398:	a6040000 	sh	a0,0(s0)
4000139c:	1520ffeb 	bnez	t1,4000134c <core_init_matrix+0x80>
400013a0:	a5030000 	sh	v1,0(t0)
400013a4:	25ef0001 	addiu	t7,t7,1
400013a8:	01e2182b 	sltu	v1,t7,v0
400013ac:	1460ffe2 	bnez	v1,40001338 <core_init_matrix+0x6c>
400013b0:	00a06021 	move	t4,a1
400013b4:	01b8c021 	addu	t8,t5,t8
400013b8:	2718ffff 	addiu	t8,t8,-1
400013bc:	2403fffc 	li	v1,-4
400013c0:	03031824 	and	v1,t8,v1
400013c4:	24630004 	addiu	v1,v1,4
400013c8:	8fb00004 	lw	s0,4(sp)
400013cc:	acee0004 	sw	t6,4(a3)
400013d0:	aced0008 	sw	t5,8(a3)
400013d4:	ace3000c 	sw	v1,12(a3)
400013d8:	acf90000 	sw	t9,0(a3)
400013dc:	03e00008 	jr	ra
400013e0:	27bd0008 	addiu	sp,sp,8
400013e4:	24a5ffff 	addiu	a1,a1,-1
400013e8:	00ad6824 	and	t5,a1,t5
400013ec:	25ae0004 	addiu	t6,t5,4
400013f0:	2419ffff 	li	t9,-1
400013f4:	25ad0006 	addiu	t5,t5,6
400013f8:	24180002 	li	t8,2
400013fc:	080004cc 	j	40001330 <core_init_matrix+0x64>
40001400:	2402ffff 	li	v0,-1

40001404 <matrix_sum>:
40001404:	00063400 	sll	a2,a2,0x10
40001408:	10800020 	beqz	a0,4000148c <matrix_sum+0x88>
4000140c:	00063403 	sra	a2,a2,0x10
40001410:	00046080 	sll	t4,a0,0x2
40001414:	00006821 	move	t5,zero
40001418:	00001021 	move	v0,zero
4000141c:	00003821 	move	a3,zero
40001420:	00004821 	move	t1,zero
40001424:	08000511 	j	40001444 <matrix_sum+0x40>
40001428:	00001821 	move	v1,zero
4000142c:	000b1400 	sll	v0,t3,0x10
40001430:	24630004 	addiu	v1,v1,4
40001434:	00021403 	sra	v0,v0,0x10
40001438:	00004821 	move	t1,zero
4000143c:	1183000e 	beq	t4,v1,40001478 <matrix_sum+0x74>
40001440:	01003821 	move	a3,t0
40001444:	00a34021 	addu	t0,a1,v1
40001448:	8d080000 	lw	t0,0(t0)
4000144c:	244b000a 	addiu	t3,v0,10
40001450:	01284821 	addu	t1,t1,t0
40001454:	00e8382a 	slt	a3,a3,t0
40001458:	00c9502a 	slt	t2,a2,t1
4000145c:	1540fff3 	bnez	t2,4000142c <matrix_sum+0x28>
40001460:	00e21021 	addu	v0,a3,v0
40001464:	00021400 	sll	v0,v0,0x10
40001468:	24630004 	addiu	v1,v1,4
4000146c:	00021403 	sra	v0,v0,0x10
40001470:	1583fff4 	bne	t4,v1,40001444 <matrix_sum+0x40>
40001474:	01003821 	move	a3,t0
40001478:	25ad0001 	addiu	t5,t5,1
4000147c:	15a4ffe9 	bne	t5,a0,40001424 <matrix_sum+0x20>
40001480:	00ac2821 	addu	a1,a1,t4
40001484:	03e00008 	jr	ra
40001488:	00000000 	nop
4000148c:	03e00008 	jr	ra
40001490:	00001021 	move	v0,zero

40001494 <matrix_mul_vect>:
40001494:	10800012 	beqz	a0,400014e0 <matrix_mul_vect+0x4c>
40001498:	00045040 	sll	t2,a0,0x1
4000149c:	00005821 	move	t3,zero
400014a0:	00001021 	move	v0,zero
400014a4:	00004021 	move	t0,zero
400014a8:	00c21821 	addu	v1,a2,v0
400014ac:	00e24821 	addu	t1,a3,v0
400014b0:	84630000 	lh	v1,0(v1)
400014b4:	85290000 	lh	t1,0(t1)
400014b8:	24420002 	addiu	v0,v0,2
400014bc:	00690018 	mult	v1,t1
400014c0:	00001812 	mflo	v1
400014c4:	144afff8 	bne	v0,t2,400014a8 <matrix_mul_vect+0x14>
400014c8:	01034021 	addu	t0,t0,v1
400014cc:	256b0001 	addiu	t3,t3,1
400014d0:	aca80000 	sw	t0,0(a1)
400014d4:	00ca3021 	addu	a2,a2,t2
400014d8:	1564fff1 	bne	t3,a0,400014a0 <matrix_mul_vect+0xc>
400014dc:	24a50004 	addiu	a1,a1,4
400014e0:	03e00008 	jr	ra
400014e4:	00000000 	nop

400014e8 <matrix_mul_matrix>:
400014e8:	10800019 	beqz	a0,40001550 <matrix_mul_matrix+0x68>
400014ec:	00045040 	sll	t2,a0,0x1
400014f0:	00047880 	sll	t7,a0,0x2
400014f4:	00007021 	move	t6,zero
400014f8:	00a06821 	move	t5,a1
400014fc:	00006021 	move	t4,zero
40001500:	00ec4021 	addu	t0,a3,t4
40001504:	00001021 	move	v0,zero
40001508:	00004821 	move	t1,zero
4000150c:	00c21821 	addu	v1,a2,v0
40001510:	850b0000 	lh	t3,0(t0)
40001514:	84630000 	lh	v1,0(v1)
40001518:	24420002 	addiu	v0,v0,2
4000151c:	010a4021 	addu	t0,t0,t2
40001520:	006b0018 	mult	v1,t3
40001524:	00001812 	mflo	v1
40001528:	1542fff8 	bne	t2,v0,4000150c <matrix_mul_matrix+0x24>
4000152c:	01234821 	addu	t1,t1,v1
40001530:	258c0002 	addiu	t4,t4,2
40001534:	ada90000 	sw	t1,0(t5)
40001538:	154cfff1 	bne	t2,t4,40001500 <matrix_mul_matrix+0x18>
4000153c:	25ad0004 	addiu	t5,t5,4
40001540:	25ce0001 	addiu	t6,t6,1
40001544:	00ca3021 	addu	a2,a2,t2
40001548:	15c4ffeb 	bne	t6,a0,400014f8 <matrix_mul_matrix+0x10>
4000154c:	00af2821 	addu	a1,a1,t7
40001550:	03e00008 	jr	ra
40001554:	00000000 	nop

40001558 <matrix_mul_matrix_bitextract>:
40001558:	1080001f 	beqz	a0,400015d8 <matrix_mul_matrix_bitextract+0x80>
4000155c:	00045840 	sll	t3,a0,0x1
40001560:	00047880 	sll	t7,a0,0x2
40001564:	00007021 	move	t6,zero
40001568:	00a06821 	move	t5,a1
4000156c:	00006021 	move	t4,zero
40001570:	00ec4821 	addu	t1,a3,t4
40001574:	00004021 	move	t0,zero
40001578:	00005021 	move	t2,zero
4000157c:	00c81021 	addu	v0,a2,t0
40001580:	85230000 	lh	v1,0(t1)
40001584:	84420000 	lh	v0,0(v0)
40001588:	25080002 	addiu	t0,t0,2
4000158c:	012b4821 	addu	t1,t1,t3
40001590:	00430018 	mult	v0,v1
40001594:	00001012 	mflo	v0
40001598:	00021943 	sra	v1,v0,0x5
4000159c:	00021083 	sra	v0,v0,0x2
400015a0:	3042000f 	andi	v0,v0,0xf
400015a4:	3063007f 	andi	v1,v1,0x7f
400015a8:	00620018 	mult	v1,v0
400015ac:	00001012 	mflo	v0
400015b0:	1568fff2 	bne	t3,t0,4000157c <matrix_mul_matrix_bitextract+0x24>
400015b4:	01425021 	addu	t2,t2,v0
400015b8:	258c0002 	addiu	t4,t4,2
400015bc:	adaa0000 	sw	t2,0(t5)
400015c0:	156cffeb 	bne	t3,t4,40001570 <matrix_mul_matrix_bitextract+0x18>
400015c4:	25ad0004 	addiu	t5,t5,4
400015c8:	25ce0001 	addiu	t6,t6,1
400015cc:	00cb3021 	addu	a2,a2,t3
400015d0:	15c4ffe5 	bne	t6,a0,40001568 <matrix_mul_matrix_bitextract+0x10>
400015d4:	00af2821 	addu	a1,a1,t7
400015d8:	03e00008 	jr	ra
400015dc:	00000000 	nop

400015e0 <matrix_test>:
400015e0:	27bdffd0 	addiu	sp,sp,-48
400015e4:	87a80042 	lh	t0,66(sp)
400015e8:	afb20018 	sw	s2,24(sp)
400015ec:	2412f000 	li	s2,-4096
400015f0:	afb50024 	sw	s5,36(sp)
400015f4:	afb40020 	sw	s4,32(sp)
400015f8:	afb3001c 	sw	s3,28(sp)
400015fc:	afb10014 	sw	s1,20(sp)
40001600:	afb00010 	sw	s0,16(sp)
40001604:	afbf002c 	sw	ra,44(sp)
40001608:	afb60028 	sw	s6,40(sp)
4000160c:	0080a021 	move	s4,a0
40001610:	00a08821 	move	s1,a1
40001614:	00c08021 	move	s0,a2
40001618:	00e09821 	move	s3,a3
4000161c:	01129025 	or	s2,t0,s2
40001620:	10800020 	beqz	a0,400016a4 <matrix_test+0xc4>
40001624:	3115ffff 	andi	s5,t0,0xffff
40001628:	00042040 	sll	a0,a0,0x1
4000162c:	02004821 	move	t1,s0
40001630:	00003821 	move	a3,zero
40001634:	01201021 	move	v0,t1
40001638:	00002821 	move	a1,zero
4000163c:	94430000 	lhu	v1,0(v0)
40001640:	24a50001 	addiu	a1,a1,1
40001644:	24420002 	addiu	v0,v0,2
40001648:	02a31821 	addu	v1,s5,v1
4000164c:	14b4fffb 	bne	a1,s4,4000163c <matrix_test+0x5c>
40001650:	a443fffe 	sh	v1,-2(v0)
40001654:	24e70001 	addiu	a3,a3,1
40001658:	14f4fff6 	bne	a3,s4,40001634 <matrix_test+0x54>
4000165c:	01244821 	addu	t1,t1,a0
40001660:	00145080 	sll	t2,s4,0x2
40001664:	02204821 	move	t1,s1
40001668:	00003821 	move	a3,zero
4000166c:	01202821 	move	a1,t1
40001670:	00001021 	move	v0,zero
40001674:	00c21821 	addu	v1,a2,v0
40001678:	84630000 	lh	v1,0(v1)
4000167c:	24a50004 	addiu	a1,a1,4
40001680:	24420002 	addiu	v0,v0,2
40001684:	00680018 	mult	v1,t0
40001688:	00001812 	mflo	v1
4000168c:	1482fff9 	bne	a0,v0,40001674 <matrix_test+0x94>
40001690:	aca3fffc 	sw	v1,-4(a1)
40001694:	24e70001 	addiu	a3,a3,1
40001698:	012a4821 	addu	t1,t1,t2
4000169c:	14f4fff3 	bne	a3,s4,4000166c <matrix_test+0x8c>
400016a0:	00c43021 	addu	a2,a2,a0
400016a4:	02403021 	move	a2,s2
400016a8:	02202821 	move	a1,s1
400016ac:	0c000501 	jal	40001404 <matrix_sum>
400016b0:	02802021 	move	a0,s4
400016b4:	00402021 	move	a0,v0
400016b8:	0c0007c7 	jal	40001f1c <crc16>
400016bc:	00002821 	move	a1,zero
400016c0:	02603821 	move	a3,s3
400016c4:	02802021 	move	a0,s4
400016c8:	02202821 	move	a1,s1
400016cc:	02003021 	move	a2,s0
400016d0:	0c000525 	jal	40001494 <matrix_mul_vect>
400016d4:	0040b021 	move	s6,v0
400016d8:	02403021 	move	a2,s2
400016dc:	02802021 	move	a0,s4
400016e0:	0c000501 	jal	40001404 <matrix_sum>
400016e4:	02202821 	move	a1,s1
400016e8:	00402021 	move	a0,v0
400016ec:	0c0007c7 	jal	40001f1c <crc16>
400016f0:	02c02821 	move	a1,s6
400016f4:	02603821 	move	a3,s3
400016f8:	02802021 	move	a0,s4
400016fc:	02202821 	move	a1,s1
40001700:	02003021 	move	a2,s0
40001704:	0c00053a 	jal	400014e8 <matrix_mul_matrix>
40001708:	0040b021 	move	s6,v0
4000170c:	02403021 	move	a2,s2
40001710:	02802021 	move	a0,s4
40001714:	0c000501 	jal	40001404 <matrix_sum>
40001718:	02202821 	move	a1,s1
4000171c:	00402021 	move	a0,v0
40001720:	0c0007c7 	jal	40001f1c <crc16>
40001724:	02c02821 	move	a1,s6
40001728:	02802021 	move	a0,s4
4000172c:	02202821 	move	a1,s1
40001730:	02003021 	move	a2,s0
40001734:	02603821 	move	a3,s3
40001738:	0c000556 	jal	40001558 <matrix_mul_matrix_bitextract>
4000173c:	0040b021 	move	s6,v0
40001740:	02802021 	move	a0,s4
40001744:	02202821 	move	a1,s1
40001748:	0c000501 	jal	40001404 <matrix_sum>
4000174c:	02403021 	move	a2,s2
40001750:	00402021 	move	a0,v0
40001754:	0c0007c7 	jal	40001f1c <crc16>
40001758:	02c02821 	move	a1,s6
4000175c:	1280000f 	beqz	s4,4000179c <matrix_test+0x1bc>
40001760:	8fbf002c 	lw	ra,44(sp)
40001764:	00143840 	sll	a3,s4,0x1
40001768:	00002021 	move	a0,zero
4000176c:	02001821 	move	v1,s0
40001770:	00003021 	move	a2,zero
40001774:	94650000 	lhu	a1,0(v1)
40001778:	24c60001 	addiu	a2,a2,1
4000177c:	24630002 	addiu	v1,v1,2
40001780:	00b52823 	subu	a1,a1,s5
40001784:	14d4fffb 	bne	a2,s4,40001774 <matrix_test+0x194>
40001788:	a465fffe 	sh	a1,-2(v1)
4000178c:	24840001 	addiu	a0,a0,1
40001790:	1494fff6 	bne	a0,s4,4000176c <matrix_test+0x18c>
40001794:	02078021 	addu	s0,s0,a3
40001798:	8fbf002c 	lw	ra,44(sp)
4000179c:	00021400 	sll	v0,v0,0x10
400017a0:	8fb60028 	lw	s6,40(sp)
400017a4:	8fb50024 	lw	s5,36(sp)
400017a8:	8fb40020 	lw	s4,32(sp)
400017ac:	8fb3001c 	lw	s3,28(sp)
400017b0:	8fb20018 	lw	s2,24(sp)
400017b4:	8fb10014 	lw	s1,20(sp)
400017b8:	8fb00010 	lw	s0,16(sp)
400017bc:	00021403 	sra	v0,v0,0x10
400017c0:	03e00008 	jr	ra
400017c4:	27bd0030 	addiu	sp,sp,48

400017c8 <core_bench_matrix>:
400017c8:	00801021 	move	v0,a0
400017cc:	8c48000c 	lw	t0,12(v0)
400017d0:	8c430004 	lw	v1,4(v0)
400017d4:	8c840000 	lw	a0,0(a0)
400017d8:	8c470008 	lw	a3,8(v0)
400017dc:	00052c00 	sll	a1,a1,0x10
400017e0:	27bdffe0 	addiu	sp,sp,-32
400017e4:	00052c03 	sra	a1,a1,0x10
400017e8:	afb00018 	sw	s0,24(sp)
400017ec:	afa50010 	sw	a1,16(sp)
400017f0:	30d0ffff 	andi	s0,a2,0xffff
400017f4:	01002821 	move	a1,t0
400017f8:	afbf001c 	sw	ra,28(sp)
400017fc:	0c000578 	jal	400015e0 <matrix_test>
40001800:	00603021 	move	a2,v1
40001804:	8fbf001c 	lw	ra,28(sp)
40001808:	02002821 	move	a1,s0
4000180c:	8fb00018 	lw	s0,24(sp)
40001810:	00402021 	move	a0,v0
40001814:	080007c7 	j	40001f1c <crc16>
40001818:	27bd0020 	addiu	sp,sp,32

4000181c <core_init_state>:
4000181c:	27bdfff8 	addiu	sp,sp,-8
40001820:	00004821 	move	t1,zero
40001824:	00003821 	move	a3,zero
40001828:	afb00000 	sw	s0,0(sp)
4000182c:	00e98021 	addu	s0,a3,t1
40001830:	afb10004 	sw	s1,4(sp)
40001834:	248affff 	addiu	t2,a0,-1
40001838:	26110001 	addiu	s1,s0,1
4000183c:	24a50001 	addiu	a1,a1,1
40001840:	3c184000 	lui	t8,0x4000
40001844:	3c0b4000 	lui	t3,0x4000
40001848:	3c0f4000 	lui	t7,0x4000
4000184c:	3c0e4000 	lui	t6,0x4000
40001850:	3c0d4000 	lui	t5,0x4000
40001854:	022a102b 	sltu	v0,s1,t2
40001858:	30a5ffff 	andi	a1,a1,0xffff
4000185c:	0000c821 	move	t9,zero
40001860:	240c002c 	li	t4,44
40001864:	27182d90 	addiu	t8,t8,11664
40001868:	256b2c7c 	addiu	t3,t3,11388
4000186c:	25ef2d60 	addiu	t7,t7,11616
40001870:	25ce2d70 	addiu	t6,t6,11632
40001874:	10400025 	beqz	v0,4000190c <core_init_state+0xf0>
40001878:	25ad2d80 	addiu	t5,t5,11648
4000187c:	1120000d 	beqz	t1,400018b4 <core_init_state+0x98>
40001880:	30a20007 	andi	v0,a1,0x7
40001884:	00001021 	move	v0,zero
40001888:	03221821 	addu	v1,t9,v0
4000188c:	90680000 	lbu	t0,0(v1)
40001890:	00471821 	addu	v1,v0,a3
40001894:	00c31821 	addu	v1,a2,v1
40001898:	24420001 	addiu	v0,v0,1
4000189c:	1449fffa 	bne	v0,t1,40001888 <core_init_state+0x6c>
400018a0:	a0680000 	sb	t0,0(v1)
400018a4:	00d08021 	addu	s0,a2,s0
400018a8:	a20c0000 	sb	t4,0(s0)
400018ac:	02203821 	move	a3,s1
400018b0:	30a20007 	andi	v0,a1,0x7
400018b4:	2442fffd 	addiu	v0,v0,-3
400018b8:	3042ffff 	andi	v0,v0,0xffff
400018bc:	00051c00 	sll	v1,a1,0x10
400018c0:	2c480005 	sltiu	t0,v0,5
400018c4:	11000029 	beqz	t0,4000196c <core_init_state+0x150>
400018c8:	00031c03 	sra	v1,v1,0x10
400018cc:	00021080 	sll	v0,v0,0x2
400018d0:	01621021 	addu	v0,t3,v0
400018d4:	8c420000 	lw	v0,0(v0)
400018d8:	00031842 	srl	v1,v1,0x1
400018dc:	00400008 	jr	v0
400018e0:	3063000c 	andi	v1,v1,0xc
400018e4:	006d1821 	addu	v1,v1,t5
400018e8:	8c790000 	lw	t9,0(v1)
400018ec:	24a50001 	addiu	a1,a1,1
400018f0:	24090008 	li	t1,8
400018f4:	30a5ffff 	andi	a1,a1,0xffff
400018f8:	00e98021 	addu	s0,a3,t1
400018fc:	26110001 	addiu	s1,s0,1
40001900:	022a102b 	sltu	v0,s1,t2
40001904:	1440ffdd 	bnez	v0,4000187c <core_init_state+0x60>
40001908:	00000000 	nop
4000190c:	00e4102b 	sltu	v0,a3,a0
40001910:	00c73821 	addu	a3,a2,a3
40001914:	10400005 	beqz	v0,4000192c <core_init_state+0x110>
40001918:	00c43021 	addu	a2,a2,a0
4000191c:	a0e00000 	sb	zero,0(a3)
40001920:	24e70001 	addiu	a3,a3,1
40001924:	14e6fffd 	bne	a3,a2,4000191c <core_init_state+0x100>
40001928:	00000000 	nop
4000192c:	8fb10004 	lw	s1,4(sp)
40001930:	8fb00000 	lw	s0,0(sp)
40001934:	03e00008 	jr	ra
40001938:	27bd0008 	addiu	sp,sp,8
4000193c:	006e1821 	addu	v1,v1,t6
40001940:	24a50001 	addiu	a1,a1,1
40001944:	8c790000 	lw	t9,0(v1)
40001948:	24090008 	li	t1,8
4000194c:	0800063e 	j	400018f8 <core_init_state+0xdc>
40001950:	30a5ffff 	andi	a1,a1,0xffff
40001954:	006f1821 	addu	v1,v1,t7
40001958:	24a50001 	addiu	a1,a1,1
4000195c:	8c790000 	lw	t9,0(v1)
40001960:	24090008 	li	t1,8
40001964:	0800063e 	j	400018f8 <core_init_state+0xdc>
40001968:	30a5ffff 	andi	a1,a1,0xffff
4000196c:	00031842 	srl	v1,v1,0x1
40001970:	3063000c 	andi	v1,v1,0xc
40001974:	00781821 	addu	v1,v1,t8
40001978:	24a50001 	addiu	a1,a1,1
4000197c:	8c790000 	lw	t9,0(v1)
40001980:	24090004 	li	t1,4
40001984:	0800063e 	j	400018f8 <core_init_state+0xdc>
40001988:	30a5ffff 	andi	a1,a1,0xffff

4000198c <core_state_transition>:
4000198c:	8c870000 	lw	a3,0(a0)
40001990:	90e30000 	lbu	v1,0(a3)
40001994:	1060001a 	beqz	v1,40001a00 <core_state_transition+0x74>
40001998:	00001021 	move	v0,zero
4000199c:	2402002c 	li	v0,44
400019a0:	1062008b 	beq	v1,v0,40001bd0 <core_state_transition+0x244>
400019a4:	00001021 	move	v0,zero
400019a8:	3c084000 	lui	t0,0x4000
400019ac:	24e60001 	addiu	a2,a3,1
400019b0:	24090001 	li	t1,1
400019b4:	25082c90 	addiu	t0,t0,11408
400019b8:	240dffdf 	li	t5,-33
400019bc:	240c0045 	li	t4,69
400019c0:	240b002e 	li	t3,46
400019c4:	240a002c 	li	t2,44
400019c8:	00023880 	sll	a3,v0,0x2
400019cc:	01073821 	addu	a3,t0,a3
400019d0:	8ce70000 	lw	a3,0(a3)
400019d4:	00e00008 	jr	a3
400019d8:	00000000 	nop
400019dc:	2463ffd0 	addiu	v1,v1,-48
400019e0:	2c63000a 	sltiu	v1,v1,10
400019e4:	14600010 	bnez	v1,40001a28 <core_state_transition+0x9c>
400019e8:	00000000 	nop
400019ec:	8ca20004 	lw	v0,4(a1)
400019f0:	00c03821 	move	a3,a2
400019f4:	24420001 	addiu	v0,v0,1
400019f8:	aca20004 	sw	v0,4(a1)
400019fc:	24020001 	li	v0,1
40001a00:	03e00008 	jr	ra
40001a04:	ac870000 	sw	a3,0(a0)
40001a08:	2463ffd0 	addiu	v1,v1,-48
40001a0c:	2c63000a 	sltiu	v1,v1,10
40001a10:	10600052 	beqz	v1,40001b5c <core_state_transition+0x1d0>
40001a14:	00000000 	nop
40001a18:	8ca30018 	lw	v1,24(a1)
40001a1c:	24020007 	li	v0,7
40001a20:	24630001 	addiu	v1,v1,1
40001a24:	aca30018 	sw	v1,24(a1)
40001a28:	90c30000 	lbu	v1,0(a2)
40001a2c:	1060fff4 	beqz	v1,40001a00 <core_state_transition+0x74>
40001a30:	00c03821 	move	a3,a2
40001a34:	146affe4 	bne	v1,t2,400019c8 <core_state_transition+0x3c>
40001a38:	24c60001 	addiu	a2,a2,1
40001a3c:	24e70001 	addiu	a3,a3,1
40001a40:	03e00008 	jr	ra
40001a44:	ac870000 	sw	a3,0(a0)
40001a48:	006d3824 	and	a3,v1,t5
40001a4c:	10ec0048 	beq	a3,t4,40001b70 <core_state_transition+0x1e4>
40001a50:	2463ffd0 	addiu	v1,v1,-48
40001a54:	2c63000a 	sltiu	v1,v1,10
40001a58:	1460fff3 	bnez	v1,40001a28 <core_state_transition+0x9c>
40001a5c:	00000000 	nop
40001a60:	8ca20014 	lw	v0,20(a1)
40001a64:	00c03821 	move	a3,a2
40001a68:	24420001 	addiu	v0,v0,1
40001a6c:	0800067f 	j	400019fc <core_state_transition+0x70>
40001a70:	aca20014 	sw	v0,20(a1)
40001a74:	106b0048 	beq	v1,t3,40001b98 <core_state_transition+0x20c>
40001a78:	2463ffd0 	addiu	v1,v1,-48
40001a7c:	2c63000a 	sltiu	v1,v1,10
40001a80:	1460ffe9 	bnez	v1,40001a28 <core_state_transition+0x9c>
40001a84:	00000000 	nop
40001a88:	8ca20010 	lw	v0,16(a1)
40001a8c:	00c03821 	move	a3,a2
40001a90:	24420001 	addiu	v0,v0,1
40001a94:	0800067f 	j	400019fc <core_state_transition+0x70>
40001a98:	aca20010 	sw	v0,16(a1)
40001a9c:	2463ffd5 	addiu	v1,v1,-43
40001aa0:	306300fd 	andi	v1,v1,0xfd
40001aa4:	10600037 	beqz	v1,40001b84 <core_state_transition+0x1f8>
40001aa8:	00000000 	nop
40001aac:	8ca2000c 	lw	v0,12(a1)
40001ab0:	00c03821 	move	a3,a2
40001ab4:	24420001 	addiu	v0,v0,1
40001ab8:	0800067f 	j	400019fc <core_state_transition+0x70>
40001abc:	aca2000c 	sw	v0,12(a1)
40001ac0:	2462ffd0 	addiu	v0,v1,-48
40001ac4:	2c42000a 	sltiu	v0,v0,10
40001ac8:	1040001d 	beqz	v0,40001b40 <core_state_transition+0x1b4>
40001acc:	24020004 	li	v0,4
40001ad0:	8ca30008 	lw	v1,8(a1)
40001ad4:	24630001 	addiu	v1,v1,1
40001ad8:	0800068a 	j	40001a28 <core_state_transition+0x9c>
40001adc:	aca30008 	sw	v1,8(a1)
40001ae0:	2467ffd0 	addiu	a3,v1,-48
40001ae4:	2ce7000a 	sltiu	a3,a3,10
40001ae8:	14e0000b 	bnez	a3,40001b18 <core_state_transition+0x18c>
40001aec:	24020004 	li	v0,4
40001af0:	2462ffd5 	addiu	v0,v1,-43
40001af4:	304200fd 	andi	v0,v0,0xfd
40001af8:	1040002c 	beqz	v0,40001bac <core_state_transition+0x220>
40001afc:	24020002 	li	v0,2
40001b00:	106b0005 	beq	v1,t3,40001b18 <core_state_transition+0x18c>
40001b04:	24020005 	li	v0,5
40001b08:	8ca30004 	lw	v1,4(a1)
40001b0c:	24020001 	li	v0,1
40001b10:	24630001 	addiu	v1,v1,1
40001b14:	aca30004 	sw	v1,4(a1)
40001b18:	8ca30000 	lw	v1,0(a1)
40001b1c:	24630001 	addiu	v1,v1,1
40001b20:	aca30000 	sw	v1,0(a1)
40001b24:	90c30000 	lbu	v1,0(a2)
40001b28:	1060ffb5 	beqz	v1,40001a00 <core_state_transition+0x74>
40001b2c:	00c03821 	move	a3,a2
40001b30:	1449ffc0 	bne	v0,t1,40001a34 <core_state_transition+0xa8>
40001b34:	00000000 	nop
40001b38:	08000680 	j	40001a00 <core_state_transition+0x74>
40001b3c:	24020001 	li	v0,1
40001b40:	106b001e 	beq	v1,t3,40001bbc <core_state_transition+0x230>
40001b44:	00000000 	nop
40001b48:	8ca20008 	lw	v0,8(a1)
40001b4c:	00c03821 	move	a3,a2
40001b50:	24420001 	addiu	v0,v0,1
40001b54:	0800067f 	j	400019fc <core_state_transition+0x70>
40001b58:	aca20008 	sw	v0,8(a1)
40001b5c:	8ca20018 	lw	v0,24(a1)
40001b60:	00c03821 	move	a3,a2
40001b64:	24420001 	addiu	v0,v0,1
40001b68:	0800067f 	j	400019fc <core_state_transition+0x70>
40001b6c:	aca20018 	sw	v0,24(a1)
40001b70:	8ca30014 	lw	v1,20(a1)
40001b74:	24020003 	li	v0,3
40001b78:	24630001 	addiu	v1,v1,1
40001b7c:	0800068a 	j	40001a28 <core_state_transition+0x9c>
40001b80:	aca30014 	sw	v1,20(a1)
40001b84:	8ca3000c 	lw	v1,12(a1)
40001b88:	24020006 	li	v0,6
40001b8c:	24630001 	addiu	v1,v1,1
40001b90:	0800068a 	j	40001a28 <core_state_transition+0x9c>
40001b94:	aca3000c 	sw	v1,12(a1)
40001b98:	8ca30010 	lw	v1,16(a1)
40001b9c:	24020005 	li	v0,5
40001ba0:	24630001 	addiu	v1,v1,1
40001ba4:	0800068a 	j	40001a28 <core_state_transition+0x9c>
40001ba8:	aca30010 	sw	v1,16(a1)
40001bac:	8ca30000 	lw	v1,0(a1)
40001bb0:	24630001 	addiu	v1,v1,1
40001bb4:	080006c9 	j	40001b24 <core_state_transition+0x198>
40001bb8:	aca30000 	sw	v1,0(a1)
40001bbc:	8ca30008 	lw	v1,8(a1)
40001bc0:	24020005 	li	v0,5
40001bc4:	24630001 	addiu	v1,v1,1
40001bc8:	0800068a 	j	40001a28 <core_state_transition+0x9c>
40001bcc:	aca30008 	sw	v1,8(a1)
40001bd0:	08000690 	j	40001a40 <core_state_transition+0xb4>
40001bd4:	24e70001 	addiu	a3,a3,1

40001bd8 <core_bench_state>:
40001bd8:	27bdff80 	addiu	sp,sp,-128
40001bdc:	afb20064 	sw	s2,100(sp)
40001be0:	afb10060 	sw	s1,96(sp)
40001be4:	97b20096 	lhu	s2,150(sp)
40001be8:	87b10092 	lh	s1,146(sp)
40001bec:	afb60074 	sw	s6,116(sp)
40001bf0:	afb30068 	sw	s3,104(sp)
40001bf4:	0006b400 	sll	s6,a2,0x10
40001bf8:	00079c00 	sll	s3,a3,0x10
40001bfc:	afb4006c 	sw	s4,108(sp)
40001c00:	afb0005c 	sw	s0,92(sp)
40001c04:	afa50050 	sw	a1,80(sp)
40001c08:	00a08021 	move	s0,a1
40001c0c:	afbf007c 	sw	ra,124(sp)
40001c10:	afb70078 	sw	s7,120(sp)
40001c14:	afb50070 	sw	s5,112(sp)
40001c18:	0080a021 	move	s4,a0
40001c1c:	0016b403 	sra	s6,s6,0x10
40001c20:	00139c03 	sra	s3,s3,0x10
40001c24:	00001021 	move	v0,zero
40001c28:	24050020 	li	a1,32
40001c2c:	27a30010 	addiu	v1,sp,16
40001c30:	27a60030 	addiu	a2,sp,48
40001c34:	00622021 	addu	a0,v1,v0
40001c38:	00c21821 	addu	v1,a2,v0
40001c3c:	24420004 	addiu	v0,v0,4
40001c40:	ac800000 	sw	zero,0(a0)
40001c44:	1445fff9 	bne	v0,a1,40001c2c <core_bench_state+0x54>
40001c48:	ac600000 	sw	zero,0(v1)
40001c4c:	92020000 	lbu	v0,0(s0)
40001c50:	1040005b 	beqz	v0,40001dc0 <core_bench_state+0x1e8>
40001c54:	27b50050 	addiu	s5,sp,80
40001c58:	02a02021 	move	a0,s5
40001c5c:	0c000663 	jal	4000198c <core_state_transition>
40001c60:	27a50010 	addiu	a1,sp,16
40001c64:	00021080 	sll	v0,v0,0x2
40001c68:	27a30010 	addiu	v1,sp,16
40001c6c:	8fa40050 	lw	a0,80(sp)
40001c70:	00621021 	addu	v0,v1,v0
40001c74:	8c430020 	lw	v1,32(v0)
40001c78:	90840000 	lbu	a0,0(a0)
40001c7c:	24630001 	addiu	v1,v1,1
40001c80:	1480fff5 	bnez	a0,40001c58 <core_bench_state+0x80>
40001c84:	ac430020 	sw	v1,32(v0)
40001c88:	0214b821 	addu	s7,s0,s4
40001c8c:	0217a02b 	sltu	s4,s0,s7
40001c90:	92020000 	lbu	v0,0(s0)
40001c94:	12800044 	beqz	s4,40001da8 <core_bench_state+0x1d0>
40001c98:	afb00050 	sw	s0,80(sp)
40001c9c:	02001821 	move	v1,s0
40001ca0:	0800072b 	j	40001cac <core_bench_state+0xd4>
40001ca4:	2405002c 	li	a1,44
40001ca8:	90620000 	lbu	v0,0(v1)
40001cac:	10450002 	beq	v0,a1,40001cb8 <core_bench_state+0xe0>
40001cb0:	00562026 	xor	a0,v0,s6
40001cb4:	a0640000 	sb	a0,0(v1)
40001cb8:	8fa30050 	lw	v1,80(sp)
40001cbc:	00711821 	addu	v1,v1,s1
40001cc0:	0077102b 	sltu	v0,v1,s7
40001cc4:	1440fff8 	bnez	v0,40001ca8 <core_bench_state+0xd0>
40001cc8:	afa30050 	sw	v1,80(sp)
40001ccc:	92020000 	lbu	v0,0(s0)
40001cd0:	afb00050 	sw	s0,80(sp)
40001cd4:	10400038 	beqz	v0,40001db8 <core_bench_state+0x1e0>
40001cd8:	27b50050 	addiu	s5,sp,80
40001cdc:	02a02021 	move	a0,s5
40001ce0:	0c000663 	jal	4000198c <core_state_transition>
40001ce4:	27a50010 	addiu	a1,sp,16
40001ce8:	00021080 	sll	v0,v0,0x2
40001cec:	27a40010 	addiu	a0,sp,16
40001cf0:	00821821 	addu	v1,a0,v0
40001cf4:	8fa40050 	lw	a0,80(sp)
40001cf8:	8c620020 	lw	v0,32(v1)
40001cfc:	90840000 	lbu	a0,0(a0)
40001d00:	24420001 	addiu	v0,v0,1
40001d04:	1480fff5 	bnez	a0,40001cdc <core_bench_state+0x104>
40001d08:	ac620020 	sw	v0,32(v1)
40001d0c:	1280000c 	beqz	s4,40001d40 <core_bench_state+0x168>
40001d10:	afb00050 	sw	s0,80(sp)
40001d14:	02001821 	move	v1,s0
40001d18:	2405002c 	li	a1,44
40001d1c:	90620000 	lbu	v0,0(v1)
40001d20:	10450002 	beq	v0,a1,40001d2c <core_bench_state+0x154>
40001d24:	00532026 	xor	a0,v0,s3
40001d28:	a0640000 	sb	a0,0(v1)
40001d2c:	8fa30050 	lw	v1,80(sp)
40001d30:	00711821 	addu	v1,v1,s1
40001d34:	0077102b 	sltu	v0,v1,s7
40001d38:	1440fff8 	bnez	v0,40001d1c <core_bench_state+0x144>
40001d3c:	afa30050 	sw	v1,80(sp)
40001d40:	00008021 	move	s0,zero
40001d44:	24110020 	li	s1,32
40001d48:	27a60030 	addiu	a2,sp,48
40001d4c:	00d01021 	addu	v0,a2,s0
40001d50:	8c440000 	lw	a0,0(v0)
40001d54:	0c0007ba 	jal	40001ee8 <crcu32>
40001d58:	02402821 	move	a1,s2
40001d5c:	27a40010 	addiu	a0,sp,16
40001d60:	00901821 	addu	v1,a0,s0
40001d64:	8c640000 	lw	a0,0(v1)
40001d68:	00402821 	move	a1,v0
40001d6c:	0c0007ba 	jal	40001ee8 <crcu32>
40001d70:	26100004 	addiu	s0,s0,4
40001d74:	1611fff4 	bne	s0,s1,40001d48 <core_bench_state+0x170>
40001d78:	00409021 	move	s2,v0
40001d7c:	8fbf007c 	lw	ra,124(sp)
40001d80:	8fb70078 	lw	s7,120(sp)
40001d84:	8fb60074 	lw	s6,116(sp)
40001d88:	8fb50070 	lw	s5,112(sp)
40001d8c:	8fb4006c 	lw	s4,108(sp)
40001d90:	8fb30068 	lw	s3,104(sp)
40001d94:	8fb20064 	lw	s2,100(sp)
40001d98:	8fb10060 	lw	s1,96(sp)
40001d9c:	8fb0005c 	lw	s0,92(sp)
40001da0:	03e00008 	jr	ra
40001da4:	27bd0080 	addiu	sp,sp,128
40001da8:	1440ffcd 	bnez	v0,40001ce0 <core_bench_state+0x108>
40001dac:	02a02021 	move	a0,s5
40001db0:	08000751 	j	40001d44 <core_bench_state+0x16c>
40001db4:	00008021 	move	s0,zero
40001db8:	08000745 	j	40001d14 <core_bench_state+0x13c>
40001dbc:	afb00050 	sw	s0,80(sp)
40001dc0:	0214b821 	addu	s7,s0,s4
40001dc4:	0217a02b 	sltu	s4,s0,s7
40001dc8:	1680ffb4 	bnez	s4,40001c9c <core_bench_state+0xc4>
40001dcc:	afb00050 	sw	s0,80(sp)
40001dd0:	08000751 	j	40001d44 <core_bench_state+0x16c>
40001dd4:	00008021 	move	s0,zero

40001dd8 <get_seed_32>:
40001dd8:	2c820006 	sltiu	v0,a0,6
40001ddc:	10400016 	beqz	v0,40001e38 <get_seed_32+0x60>
40001de0:	00042080 	sll	a0,a0,0x2
40001de4:	3c024000 	lui	v0,0x4000
40001de8:	24422da0 	addiu	v0,v0,11680
40001dec:	00442021 	addu	a0,v0,a0
40001df0:	8c820000 	lw	v0,0(a0)
40001df4:	00400008 	jr	v0
40001df8:	00000000 	nop
40001dfc:	8f828024 	lw	v0,-32732(gp)
40001e00:	03e00008 	jr	ra
40001e04:	00000000 	nop
40001e08:	8f82802c 	lw	v0,-32724(gp)
40001e0c:	03e00008 	jr	ra
40001e10:	00000000 	nop
40001e14:	8f828028 	lw	v0,-32728(gp)
40001e18:	03e00008 	jr	ra
40001e1c:	00000000 	nop
40001e20:	8f828018 	lw	v0,-32744(gp)
40001e24:	03e00008 	jr	ra
40001e28:	00000000 	nop
40001e2c:	8f828014 	lw	v0,-32748(gp)
40001e30:	03e00008 	jr	ra
40001e34:	00000000 	nop
40001e38:	03e00008 	jr	ra
40001e3c:	00001021 	move	v0,zero

40001e40 <crcu16>:
40001e40:	3084ffff 	andi	a0,a0,0xffff
40001e44:	30a2ffff 	andi	v0,a1,0xffff
40001e48:	308600ff 	andi	a2,a0,0xff
40001e4c:	24030008 	li	v1,8
40001e50:	0800079a 	j	40001e68 <crcu16+0x28>
40001e54:	24070001 	li	a3,1
40001e58:	2463ffff 	addiu	v1,v1,-1
40001e5c:	306300ff 	andi	v1,v1,0xff
40001e60:	1060000b 	beqz	v1,40001e90 <crcu16+0x50>
40001e64:	00021042 	srl	v0,v0,0x1
40001e68:	00462826 	xor	a1,v0,a2
40001e6c:	30a50001 	andi	a1,a1,0x1
40001e70:	14a7fff9 	bne	a1,a3,40001e58 <crcu16+0x18>
40001e74:	00063042 	srl	a2,a2,0x1
40001e78:	38424002 	xori	v0,v0,0x4002
40001e7c:	2463ffff 	addiu	v1,v1,-1
40001e80:	00021042 	srl	v0,v0,0x1
40001e84:	306300ff 	andi	v1,v1,0xff
40001e88:	1460fff7 	bnez	v1,40001e68 <crcu16+0x28>
40001e8c:	34428000 	ori	v0,v0,0x8000
40001e90:	00042202 	srl	a0,a0,0x8
40001e94:	24030008 	li	v1,8
40001e98:	24060001 	li	a2,1
40001e9c:	080007ad 	j	40001eb4 <crcu16+0x74>
40001ea0:	24078000 	li	a3,-32768
40001ea4:	2463ffff 	addiu	v1,v1,-1
40001ea8:	306300ff 	andi	v1,v1,0xff
40001eac:	1060000c 	beqz	v1,40001ee0 <crcu16+0xa0>
40001eb0:	00021042 	srl	v0,v0,0x1
40001eb4:	00442826 	xor	a1,v0,a0
40001eb8:	30a50001 	andi	a1,a1,0x1
40001ebc:	14a6fff9 	bne	a1,a2,40001ea4 <crcu16+0x64>
40001ec0:	00042042 	srl	a0,a0,0x1
40001ec4:	38424002 	xori	v0,v0,0x4002
40001ec8:	00021042 	srl	v0,v0,0x1
40001ecc:	2463ffff 	addiu	v1,v1,-1
40001ed0:	00471025 	or	v0,v0,a3
40001ed4:	306300ff 	andi	v1,v1,0xff
40001ed8:	1460fff6 	bnez	v1,40001eb4 <crcu16+0x74>
40001edc:	3042ffff 	andi	v0,v0,0xffff
40001ee0:	03e00008 	jr	ra
40001ee4:	00000000 	nop

40001ee8 <crcu32>:
40001ee8:	27bdffe8 	addiu	sp,sp,-24
40001eec:	30a5ffff 	andi	a1,a1,0xffff
40001ef0:	afb00010 	sw	s0,16(sp)
40001ef4:	00808021 	move	s0,a0
40001ef8:	afbf0014 	sw	ra,20(sp)
40001efc:	0c000790 	jal	40001e40 <crcu16>
40001f00:	3084ffff 	andi	a0,a0,0xffff
40001f04:	8fbf0014 	lw	ra,20(sp)
40001f08:	00102402 	srl	a0,s0,0x10
40001f0c:	8fb00010 	lw	s0,16(sp)
40001f10:	00402821 	move	a1,v0
40001f14:	08000790 	j	40001e40 <crcu16>
40001f18:	27bd0018 	addiu	sp,sp,24

40001f1c <crc16>:
40001f1c:	3084ffff 	andi	a0,a0,0xffff
40001f20:	08000790 	j	40001e40 <crcu16>
40001f24:	30a5ffff 	andi	a1,a1,0xffff

40001f28 <check_data_types>:
40001f28:	03e00008 	jr	ra
40001f2c:	00001021 	move	v0,zero

40001f30 <printchar.part.0>:
40001f30:	3c03f000 	lui	v1,0xf000
40001f34:	8c620010 	lw	v0,16(v1)
40001f38:	30420080 	andi	v0,v0,0x80
40001f3c:	1040fffd 	beqz	v0,40001f34 <printchar.part.0+0x4>
40001f40:	3c02f000 	lui	v0,0xf000
40001f44:	ac4400e0 	sw	a0,224(v0)
40001f48:	03e00008 	jr	ra
40001f4c:	00000000 	nop

40001f50 <prints>:
40001f50:	27bdffd8 	addiu	sp,sp,-40
40001f54:	afb3001c 	sw	s3,28(sp)
40001f58:	afb10014 	sw	s1,20(sp)
40001f5c:	afb00010 	sw	s0,16(sp)
40001f60:	afbf0024 	sw	ra,36(sp)
40001f64:	afb40020 	sw	s4,32(sp)
40001f68:	afb20018 	sw	s2,24(sp)
40001f6c:	00808021 	move	s0,a0
40001f70:	00c09821 	move	s3,a2
40001f74:	00a08821 	move	s1,a1
40001f78:	18c00056 	blez	a2,400020d4 <prints+0x184>
40001f7c:	80a40000 	lb	a0,0(a1)
40001f80:	1080004d 	beqz	a0,400020b8 <prints+0x168>
40001f84:	00a01021 	move	v0,a1
40001f88:	00001821 	move	v1,zero
40001f8c:	24420001 	addiu	v0,v0,1
40001f90:	80450000 	lb	a1,0(v0)
40001f94:	14a0fffd 	bnez	a1,40001f8c <prints+0x3c>
40001f98:	24630001 	addiu	v1,v1,1
40001f9c:	0073102a 	slt	v0,v1,s3
40001fa0:	14400046 	bnez	v0,400020bc <prints+0x16c>
40001fa4:	00009021 	move	s2,zero
40001fa8:	30e20002 	andi	v0,a3,0x2
40001fac:	14400040 	bnez	v0,400020b0 <prints+0x160>
40001fb0:	24140020 	li	s4,32
40001fb4:	30e70001 	andi	a3,a3,0x1
40001fb8:	14e00031 	bnez	a3,40002080 <prints+0x130>
40001fbc:	02409821 	move	s3,s2
40001fc0:	1a400045 	blez	s2,400020d8 <prints+0x188>
40001fc4:	00000000 	nop
40001fc8:	12000047 	beqz	s0,400020e8 <prints+0x198>
40001fcc:	00000000 	nop
40001fd0:	8e020000 	lw	v0,0(s0)
40001fd4:	a0540000 	sb	s4,0(v0)
40001fd8:	8e020000 	lw	v0,0(s0)
40001fdc:	24420001 	addiu	v0,v0,1
40001fe0:	ae020000 	sw	v0,0(s0)
40001fe4:	2673ffff 	addiu	s3,s3,-1
40001fe8:	1660fff7 	bnez	s3,40001fc8 <prints+0x78>
40001fec:	00000000 	nop
40001ff0:	82240000 	lb	a0,0(s1)
40001ff4:	1080001a 	beqz	a0,40002060 <prints+0x110>
40001ff8:	8fbf0024 	lw	ra,36(sp)
40001ffc:	12000024 	beqz	s0,40002090 <prints+0x140>
40002000:	00000000 	nop
40002004:	8e020000 	lw	v0,0(s0)
40002008:	a0440000 	sb	a0,0(v0)
4000200c:	8e030000 	lw	v1,0(s0)
40002010:	24630001 	addiu	v1,v1,1
40002014:	ae030000 	sw	v1,0(s0)
40002018:	26310001 	addiu	s1,s1,1
4000201c:	82240000 	lb	a0,0(s1)
40002020:	1480fff6 	bnez	a0,40001ffc <prints+0xac>
40002024:	26520001 	addiu	s2,s2,1
40002028:	1a60000c 	blez	s3,4000205c <prints+0x10c>
4000202c:	02608821 	move	s1,s3
40002030:	1200001b 	beqz	s0,400020a0 <prints+0x150>
40002034:	00000000 	nop
40002038:	8e020000 	lw	v0,0(s0)
4000203c:	a0540000 	sb	s4,0(v0)
40002040:	8e030000 	lw	v1,0(s0)
40002044:	24630001 	addiu	v1,v1,1
40002048:	ae030000 	sw	v1,0(s0)
4000204c:	2631ffff 	addiu	s1,s1,-1
40002050:	1620fff7 	bnez	s1,40002030 <prints+0xe0>
40002054:	00000000 	nop
40002058:	02539021 	addu	s2,s2,s3
4000205c:	8fbf0024 	lw	ra,36(sp)
40002060:	02401021 	move	v0,s2
40002064:	8fb40020 	lw	s4,32(sp)
40002068:	8fb3001c 	lw	s3,28(sp)
4000206c:	8fb20018 	lw	s2,24(sp)
40002070:	8fb10014 	lw	s1,20(sp)
40002074:	8fb00010 	lw	s0,16(sp)
40002078:	03e00008 	jr	ra
4000207c:	27bd0028 	addiu	sp,sp,40
40002080:	1080ffe9 	beqz	a0,40002028 <prints+0xd8>
40002084:	00009021 	move	s2,zero
40002088:	1600ffde 	bnez	s0,40002004 <prints+0xb4>
4000208c:	00000000 	nop
40002090:	0c0007cc 	jal	40001f30 <printchar.part.0>
40002094:	26310001 	addiu	s1,s1,1
40002098:	08000808 	j	40002020 <prints+0xd0>
4000209c:	82240000 	lb	a0,0(s1)
400020a0:	0c0007cc 	jal	40001f30 <printchar.part.0>
400020a4:	02802021 	move	a0,s4
400020a8:	08000814 	j	40002050 <prints+0x100>
400020ac:	2631ffff 	addiu	s1,s1,-1
400020b0:	080007ed 	j	40001fb4 <prints+0x64>
400020b4:	24140030 	li	s4,48
400020b8:	00001821 	move	v1,zero
400020bc:	30e20002 	andi	v0,a3,0x2
400020c0:	02639023 	subu	s2,s3,v1
400020c4:	1040ffbb 	beqz	v0,40001fb4 <prints+0x64>
400020c8:	24140020 	li	s4,32
400020cc:	080007ed 	j	40001fb4 <prints+0x64>
400020d0:	24140030 	li	s4,48
400020d4:	24140020 	li	s4,32
400020d8:	1480ffc8 	bnez	a0,40001ffc <prints+0xac>
400020dc:	00009021 	move	s2,zero
400020e0:	08000818 	j	40002060 <prints+0x110>
400020e4:	8fbf0024 	lw	ra,36(sp)
400020e8:	0c0007cc 	jal	40001f30 <printchar.part.0>
400020ec:	02802021 	move	a0,s4
400020f0:	080007fa 	j	40001fe8 <prints+0x98>
400020f4:	2673ffff 	addiu	s3,s3,-1

400020f8 <printi>:
400020f8:	27bdffb0 	addiu	sp,sp,-80
400020fc:	afbf004c 	sw	ra,76(sp)
40002100:	afb50048 	sw	s5,72(sp)
40002104:	afb40044 	sw	s4,68(sp)
40002108:	afb30040 	sw	s3,64(sp)
4000210c:	afb2003c 	sw	s2,60(sp)
40002110:	afb10038 	sw	s1,56(sp)
40002114:	10a0004c 	beqz	a1,40002248 <printi+0x150>
40002118:	afb00034 	sw	s0,52(sp)
4000211c:	0080a021 	move	s4,a0
40002120:	00c09021 	move	s2,a2
40002124:	14e00026 	bnez	a3,400021c0 <printi+0xc8>
40002128:	00a08021 	move	s0,a1
4000212c:	a3a0002d 	sb	zero,45(sp)
40002130:	10a00055 	beqz	a1,40002288 <printi+0x190>
40002134:	0000a821 	move	s5,zero
40002138:	8fb30068 	lw	s3,104(sp)
4000213c:	27b1002d 	addiu	s1,sp,45
40002140:	2673ffc6 	addiu	s3,s3,-58
40002144:	02002021 	move	a0,s0
40002148:	0c0009a1 	jal	40002684 <__umodsi3>
4000214c:	02402821 	move	a1,s2
40002150:	2843000a 	slti	v1,v0,10
40002154:	2631ffff 	addiu	s1,s1,-1
40002158:	02002021 	move	a0,s0
4000215c:	14600002 	bnez	v1,40002168 <printi+0x70>
40002160:	02402821 	move	a1,s2
40002164:	00531021 	addu	v0,v0,s3
40002168:	24420030 	addiu	v0,v0,48
4000216c:	0c00099f 	jal	4000267c <__udivsi3>
40002170:	a2220000 	sb	v0,0(s1)
40002174:	1440fff3 	bnez	v0,40002144 <printi+0x4c>
40002178:	00408021 	move	s0,v0
4000217c:	16a0001c 	bnez	s5,400021f0 <printi+0xf8>
40002180:	8fa20060 	lw	v0,96(sp)
40002184:	8fa60060 	lw	a2,96(sp)
40002188:	8fa70064 	lw	a3,100(sp)
4000218c:	02802021 	move	a0,s4
40002190:	0c0007d4 	jal	40001f50 <prints>
40002194:	02202821 	move	a1,s1
40002198:	8fbf004c 	lw	ra,76(sp)
4000219c:	00501021 	addu	v0,v0,s0
400021a0:	8fb50048 	lw	s5,72(sp)
400021a4:	8fb40044 	lw	s4,68(sp)
400021a8:	8fb30040 	lw	s3,64(sp)
400021ac:	8fb2003c 	lw	s2,60(sp)
400021b0:	8fb10038 	lw	s1,56(sp)
400021b4:	8fb00034 	lw	s0,52(sp)
400021b8:	03e00008 	jr	ra
400021bc:	27bd0050 	addiu	sp,sp,80
400021c0:	2402000a 	li	v0,10
400021c4:	14c2ffd9 	bne	a2,v0,4000212c <printi+0x34>
400021c8:	00000000 	nop
400021cc:	04a1ffd7 	bgez	a1,4000212c <printi+0x34>
400021d0:	00000000 	nop
400021d4:	00058023 	negu	s0,a1
400021d8:	12000003 	beqz	s0,400021e8 <printi+0xf0>
400021dc:	a3a0002d 	sb	zero,45(sp)
400021e0:	0800084e 	j	40002138 <printi+0x40>
400021e4:	24150001 	li	s5,1
400021e8:	27b1002d 	addiu	s1,sp,45
400021ec:	8fa20060 	lw	v0,96(sp)
400021f0:	10400011 	beqz	v0,40002238 <printi+0x140>
400021f4:	2402002d 	li	v0,45
400021f8:	8fa30064 	lw	v1,100(sp)
400021fc:	30620002 	andi	v0,v1,0x2
40002200:	1040000d 	beqz	v0,40002238 <printi+0x140>
40002204:	2402002d 	li	v0,45
40002208:	12800022 	beqz	s4,40002294 <printi+0x19c>
4000220c:	2403002d 	li	v1,45
40002210:	8e820000 	lw	v0,0(s4)
40002214:	a0430000 	sb	v1,0(v0)
40002218:	8e820000 	lw	v0,0(s4)
4000221c:	24420001 	addiu	v0,v0,1
40002220:	ae820000 	sw	v0,0(s4)
40002224:	8fa20060 	lw	v0,96(sp)
40002228:	24100001 	li	s0,1
4000222c:	2442ffff 	addiu	v0,v0,-1
40002230:	08000861 	j	40002184 <printi+0x8c>
40002234:	afa20060 	sw	v0,96(sp)
40002238:	a222ffff 	sb	v0,-1(s1)
4000223c:	00008021 	move	s0,zero
40002240:	08000861 	j	40002184 <printi+0x8c>
40002244:	2631ffff 	addiu	s1,s1,-1
40002248:	8fa60060 	lw	a2,96(sp)
4000224c:	8fa70064 	lw	a3,100(sp)
40002250:	27a50010 	addiu	a1,sp,16
40002254:	24020030 	li	v0,48
40002258:	a3a20010 	sb	v0,16(sp)
4000225c:	0c0007d4 	jal	40001f50 <prints>
40002260:	a3a00011 	sb	zero,17(sp)
40002264:	8fbf004c 	lw	ra,76(sp)
40002268:	8fb50048 	lw	s5,72(sp)
4000226c:	8fb40044 	lw	s4,68(sp)
40002270:	8fb30040 	lw	s3,64(sp)
40002274:	8fb2003c 	lw	s2,60(sp)
40002278:	8fb10038 	lw	s1,56(sp)
4000227c:	8fb00034 	lw	s0,52(sp)
40002280:	03e00008 	jr	ra
40002284:	27bd0050 	addiu	sp,sp,80
40002288:	00008021 	move	s0,zero
4000228c:	08000861 	j	40002184 <printi+0x8c>
40002290:	27b1002d 	addiu	s1,sp,45
40002294:	0c0007cc 	jal	40001f30 <printchar.part.0>
40002298:	2404002d 	li	a0,45
4000229c:	0800088a 	j	40002228 <printi+0x130>
400022a0:	8fa20060 	lw	v0,96(sp)

400022a4 <print>:
400022a4:	27bdffb8 	addiu	sp,sp,-72
400022a8:	afb5003c 	sw	s5,60(sp)
400022ac:	afb30034 	sw	s3,52(sp)
400022b0:	afbf0044 	sw	ra,68(sp)
400022b4:	afb60040 	sw	s6,64(sp)
400022b8:	afb40038 	sw	s4,56(sp)
400022bc:	afb20030 	sw	s2,48(sp)
400022c0:	afb1002c 	sw	s1,44(sp)
400022c4:	afb00028 	sw	s0,40(sp)
400022c8:	80a20000 	lb	v0,0(a1)
400022cc:	00809821 	move	s3,a0
400022d0:	afa60050 	sw	a2,80(sp)
400022d4:	10400013 	beqz	v0,40002324 <print+0x80>
400022d8:	0000a821 	move	s5,zero
400022dc:	24160025 	li	s6,37
400022e0:	2411002d 	li	s1,45
400022e4:	24140030 	li	s4,48
400022e8:	3c124000 	lui	s2,0x4000
400022ec:	1056001c 	beq	v0,s6,40002360 <print+0xbc>
400022f0:	00000000 	nop
400022f4:	80a40000 	lb	a0,0(a1)
400022f8:	12600055 	beqz	s3,40002450 <print+0x1ac>
400022fc:	00a08021 	move	s0,a1
40002300:	8e620000 	lw	v0,0(s3)
40002304:	a0440000 	sb	a0,0(v0)
40002308:	8e620000 	lw	v0,0(s3)
4000230c:	24420001 	addiu	v0,v0,1
40002310:	ae620000 	sw	v0,0(s3)
40002314:	26b50001 	addiu	s5,s5,1
40002318:	82020001 	lb	v0,1(s0)
4000231c:	1440fff3 	bnez	v0,400022ec <print+0x48>
40002320:	26050001 	addiu	a1,s0,1
40002324:	12600004 	beqz	s3,40002338 <print+0x94>
40002328:	8fbf0044 	lw	ra,68(sp)
4000232c:	8e620000 	lw	v0,0(s3)
40002330:	a0400000 	sb	zero,0(v0)
40002334:	8fbf0044 	lw	ra,68(sp)
40002338:	02a01021 	move	v0,s5
4000233c:	8fb60040 	lw	s6,64(sp)
40002340:	8fb5003c 	lw	s5,60(sp)
40002344:	8fb40038 	lw	s4,56(sp)
40002348:	8fb30034 	lw	s3,52(sp)
4000234c:	8fb20030 	lw	s2,48(sp)
40002350:	8fb1002c 	lw	s1,44(sp)
40002354:	8fb00028 	lw	s0,40(sp)
40002358:	03e00008 	jr	ra
4000235c:	27bd0048 	addiu	sp,sp,72
40002360:	80a30001 	lb	v1,1(a1)
40002364:	1060ffef 	beqz	v1,40002324 <print+0x80>
40002368:	24b00001 	addiu	s0,a1,1
4000236c:	10760036 	beq	v1,s6,40002448 <print+0x1a4>
40002370:	00000000 	nop
40002374:	10710030 	beq	v1,s1,40002438 <print+0x194>
40002378:	00003821 	move	a3,zero
4000237c:	14740006 	bne	v1,s4,40002398 <print+0xf4>
40002380:	2468ffd0 	addiu	t0,v1,-48
40002384:	26100001 	addiu	s0,s0,1
40002388:	82030000 	lb	v1,0(s0)
4000238c:	1074fffd 	beq	v1,s4,40002384 <print+0xe0>
40002390:	34e70002 	ori	a3,a3,0x2
40002394:	2468ffd0 	addiu	t0,v1,-48
40002398:	310200ff 	andi	v0,t0,0xff
4000239c:	2c42000a 	sltiu	v0,v0,10
400023a0:	1040000d 	beqz	v0,400023d8 <print+0x134>
400023a4:	00003021 	move	a2,zero
400023a8:	26100001 	addiu	s0,s0,1
400023ac:	82030000 	lb	v1,0(s0)
400023b0:	00062840 	sll	a1,a2,0x1
400023b4:	000630c0 	sll	a2,a2,0x3
400023b8:	00a63021 	addu	a2,a1,a2
400023bc:	01063021 	addu	a2,t0,a2
400023c0:	2468ffd0 	addiu	t0,v1,-48
400023c4:	310500ff 	andi	a1,t0,0xff
400023c8:	2ca5000a 	sltiu	a1,a1,10
400023cc:	14a0fff7 	bnez	a1,400023ac <print+0x108>
400023d0:	26100001 	addiu	s0,s0,1
400023d4:	2610ffff 	addiu	s0,s0,-1
400023d8:	24020073 	li	v0,115
400023dc:	10620020 	beq	v1,v0,40002460 <print+0x1bc>
400023e0:	24020064 	li	v0,100
400023e4:	10620027 	beq	v1,v0,40002484 <print+0x1e0>
400023e8:	24020078 	li	v0,120
400023ec:	10620033 	beq	v1,v0,400024bc <print+0x218>
400023f0:	24020058 	li	v0,88
400023f4:	1062003f 	beq	v1,v0,400024f4 <print+0x250>
400023f8:	8fa20050 	lw	v0,80(sp)
400023fc:	24020075 	li	v0,117
40002400:	10620043 	beq	v1,v0,40002510 <print+0x26c>
40002404:	24020063 	li	v0,99
40002408:	1462ffc3 	bne	v1,v0,40002318 <print+0x74>
4000240c:	8fa20050 	lw	v0,80(sp)
40002410:	02602021 	move	a0,s3
40002414:	27a50020 	addiu	a1,sp,32
40002418:	8c430000 	lw	v1,0(v0)
4000241c:	24420004 	addiu	v0,v0,4
40002420:	afa20050 	sw	v0,80(sp)
40002424:	a3a30020 	sb	v1,32(sp)
40002428:	0c0007d4 	jal	40001f50 <prints>
4000242c:	a3a00021 	sb	zero,33(sp)
40002430:	080008c6 	j	40002318 <print+0x74>
40002434:	02a2a821 	addu	s5,s5,v0
40002438:	24b00002 	addiu	s0,a1,2
4000243c:	80a30002 	lb	v1,2(a1)
40002440:	080008df 	j	4000237c <print+0xd8>
40002444:	24070001 	li	a3,1
40002448:	1660ffad 	bnez	s3,40002300 <print+0x5c>
4000244c:	24040025 	li	a0,37
40002450:	0c0007cc 	jal	40001f30 <printchar.part.0>
40002454:	26b50001 	addiu	s5,s5,1
40002458:	080008c7 	j	4000231c <print+0x78>
4000245c:	82020001 	lb	v0,1(s0)
40002460:	8fa20050 	lw	v0,80(sp)
40002464:	8c450000 	lw	a1,0(v0)
40002468:	24420004 	addiu	v0,v0,4
4000246c:	10a00036 	beqz	a1,40002548 <print+0x2a4>
40002470:	afa20050 	sw	v0,80(sp)
40002474:	0c0007d4 	jal	40001f50 <prints>
40002478:	02602021 	move	a0,s3
4000247c:	080008c6 	j	40002318 <print+0x74>
40002480:	02a2a821 	addu	s5,s5,v0
40002484:	8fa20050 	lw	v0,80(sp)
40002488:	24030061 	li	v1,97
4000248c:	02602021 	move	a0,s3
40002490:	8c450000 	lw	a1,0(v0)
40002494:	24420004 	addiu	v0,v0,4
40002498:	afa60010 	sw	a2,16(sp)
4000249c:	afa70014 	sw	a3,20(sp)
400024a0:	afa30018 	sw	v1,24(sp)
400024a4:	2406000a 	li	a2,10
400024a8:	24070001 	li	a3,1
400024ac:	0c00083e 	jal	400020f8 <printi>
400024b0:	afa20050 	sw	v0,80(sp)
400024b4:	080008c6 	j	40002318 <print+0x74>
400024b8:	02a2a821 	addu	s5,s5,v0
400024bc:	8fa20050 	lw	v0,80(sp)
400024c0:	02602021 	move	a0,s3
400024c4:	24030061 	li	v1,97
400024c8:	8c450000 	lw	a1,0(v0)
400024cc:	24420004 	addiu	v0,v0,4
400024d0:	afa60010 	sw	a2,16(sp)
400024d4:	afa70014 	sw	a3,20(sp)
400024d8:	afa30018 	sw	v1,24(sp)
400024dc:	24060010 	li	a2,16
400024e0:	00003821 	move	a3,zero
400024e4:	0c00083e 	jal	400020f8 <printi>
400024e8:	afa20050 	sw	v0,80(sp)
400024ec:	080008c6 	j	40002318 <print+0x74>
400024f0:	02a2a821 	addu	s5,s5,v0
400024f4:	02602021 	move	a0,s3
400024f8:	24030041 	li	v1,65
400024fc:	8c450000 	lw	a1,0(v0)
40002500:	24420004 	addiu	v0,v0,4
40002504:	afa60010 	sw	a2,16(sp)
40002508:	08000936 	j	400024d8 <print+0x234>
4000250c:	afa70014 	sw	a3,20(sp)
40002510:	8fa20050 	lw	v0,80(sp)
40002514:	24030061 	li	v1,97
40002518:	02602021 	move	a0,s3
4000251c:	8c450000 	lw	a1,0(v0)
40002520:	24420004 	addiu	v0,v0,4
40002524:	afa60010 	sw	a2,16(sp)
40002528:	afa70014 	sw	a3,20(sp)
4000252c:	afa30018 	sw	v1,24(sp)
40002530:	2406000a 	li	a2,10
40002534:	00003821 	move	a3,zero
40002538:	0c00083e 	jal	400020f8 <printi>
4000253c:	afa20050 	sw	v0,80(sp)
40002540:	080008c6 	j	40002318 <print+0x74>
40002544:	02a2a821 	addu	s5,s5,v0
40002548:	0800091d 	j	40002474 <print+0x1d0>
4000254c:	26452db8 	addiu	a1,s2,11704

40002550 <interrupt_handler>:
40002550:	27bdffe0 	addiu	sp,sp,-32
40002554:	afb10014 	sw	s1,20(sp)
40002558:	3c114000 	lui	s1,0x4000
4000255c:	afb20018 	sw	s2,24(sp)
40002560:	afb00010 	sw	s0,16(sp)
40002564:	afbf001c 	sw	ra,28(sp)
40002568:	00808021 	move	s0,a0
4000256c:	00a09021 	move	s2,a1
40002570:	26312e30 	addiu	s1,s1,11824
40002574:	32020001 	andi	v0,s0,0x1
40002578:	10400006 	beqz	v0,40002594 <interrupt_handler+0x44>
4000257c:	00108042 	srl	s0,s0,0x1
40002580:	8e220000 	lw	v0,0(s1)
40002584:	10400003 	beqz	v0,40002594 <interrupt_handler+0x44>
40002588:	02402021 	move	a0,s2
4000258c:	0040f809 	jalr	v0
40002590:	00000000 	nop
40002594:	1600fff7 	bnez	s0,40002574 <interrupt_handler+0x24>
40002598:	26310004 	addiu	s1,s1,4
4000259c:	8fbf001c 	lw	ra,28(sp)
400025a0:	8fb20018 	lw	s2,24(sp)
400025a4:	8fb10014 	lw	s1,20(sp)
400025a8:	8fb00010 	lw	s0,16(sp)
400025ac:	03e00008 	jr	ra
400025b0:	27bd0020 	addiu	sp,sp,32

400025b4 <printf>:
400025b4:	27bdffe0 	addiu	sp,sp,-32
400025b8:	27a20024 	addiu	v0,sp,36
400025bc:	00801821 	move	v1,a0
400025c0:	00002021 	move	a0,zero
400025c4:	afa50024 	sw	a1,36(sp)
400025c8:	afa60028 	sw	a2,40(sp)
400025cc:	00602821 	move	a1,v1
400025d0:	00403021 	move	a2,v0
400025d4:	afbf001c 	sw	ra,28(sp)
400025d8:	afa7002c 	sw	a3,44(sp)
400025dc:	0c0008a9 	jal	400022a4 <print>
400025e0:	afa20010 	sw	v0,16(sp)
400025e4:	8fbf001c 	lw	ra,28(sp)
400025e8:	03e00008 	jr	ra
400025ec:	27bd0020 	addiu	sp,sp,32

400025f0 <__udivmodsi4>:
400025f0:	00a4102b 	sltu	v0,a1,a0
400025f4:	10400010 	beqz	v0,40002638 <__udivmodsi4+0x48>
400025f8:	24030001 	li	v1,1
400025fc:	04a0001d 	bltz	a1,40002674 <__udivmodsi4+0x84>
40002600:	24020020 	li	v0,32
40002604:	08000988 	j	40002620 <__udivmodsi4+0x30>
40002608:	00052840 	sll	a1,a1,0x1
4000260c:	10400013 	beqz	v0,4000265c <__udivmodsi4+0x6c>
40002610:	00003821 	move	a3,zero
40002614:	04a00009 	bltz	a1,4000263c <__udivmodsi4+0x4c>
40002618:	00000000 	nop
4000261c:	00052840 	sll	a1,a1,0x1
40002620:	00a4382b 	sltu	a3,a1,a0
40002624:	2442ffff 	addiu	v0,v0,-1
40002628:	14e0fff8 	bnez	a3,4000260c <__udivmodsi4+0x1c>
4000262c:	00031840 	sll	v1,v1,0x1
40002630:	1060000a 	beqz	v1,4000265c <__udivmodsi4+0x6c>
40002634:	00003821 	move	a3,zero
40002638:	00003821 	move	a3,zero
4000263c:	0085102b 	sltu	v0,a0,a1
40002640:	14400003 	bnez	v0,40002650 <__udivmodsi4+0x60>
40002644:	00000000 	nop
40002648:	00852023 	subu	a0,a0,a1
4000264c:	00e33825 	or	a3,a3,v1
40002650:	00031842 	srl	v1,v1,0x1
40002654:	1460fff9 	bnez	v1,4000263c <__udivmodsi4+0x4c>
40002658:	00052842 	srl	a1,a1,0x1
4000265c:	14c00003 	bnez	a2,4000266c <__udivmodsi4+0x7c>
40002660:	00801021 	move	v0,a0
40002664:	03e00008 	jr	ra
40002668:	00e01021 	move	v0,a3
4000266c:	03e00008 	jr	ra
40002670:	00000000 	nop
40002674:	0800098e 	j	40002638 <__udivmodsi4+0x48>
40002678:	24030001 	li	v1,1

4000267c <__udivsi3>:
4000267c:	0800097c 	j	400025f0 <__udivmodsi4>
40002680:	00003021 	move	a2,zero

40002684 <__umodsi3>:
40002684:	0800097c 	j	400025f0 <__udivmodsi4>
40002688:	24060001 	li	a2,1

4000268c <start_time>:
4000268c:	3c02f000 	lui	v0,0xf000
40002690:	8c420050 	lw	v0,80(v0)
40002694:	03e00008 	jr	ra
40002698:	af828020 	sw	v0,-32736(gp)

4000269c <stop_time>:
4000269c:	3c02f000 	lui	v0,0xf000
400026a0:	8c420050 	lw	v0,80(v0)
400026a4:	03e00008 	jr	ra
400026a8:	af82801c 	sw	v0,-32740(gp)

400026ac <get_time>:
400026ac:	8f828020 	lw	v0,-32736(gp)
400026b0:	8f83801c 	lw	v1,-32740(gp)
400026b4:	03e00008 	jr	ra
400026b8:	00621023 	subu	v0,v1,v0

400026bc <time_in_secs>:
400026bc:	3c05017d 	lui	a1,0x17d
400026c0:	27bdffe8 	addiu	sp,sp,-24
400026c4:	afbf0014 	sw	ra,20(sp)
400026c8:	0c00099f 	jal	4000267c <__udivsi3>
400026cc:	24a57840 	addiu	a1,a1,30784
400026d0:	8fbf0014 	lw	ra,20(sp)
400026d4:	03e00008 	jr	ra
400026d8:	27bd0018 	addiu	sp,sp,24

400026dc <portable_init>:
400026dc:	24020001 	li	v0,1
400026e0:	03e00008 	jr	ra
400026e4:	a0820000 	sb	v0,0(a0)

400026e8 <portable_fini>:
400026e8:	03e00008 	jr	ra
400026ec:	a0800000 	sb	zero,0(a0)
