
Allocating common symbols
Common symbol       size              file

krnl_tcb            0x11d0            condvar.o
last_free           0x4               device.o
krnl_heap           0x7a120           condvar.o
krnl_current_task   0x2               condvar.o
krnl_task           0x4               condvar.o
krnl_event_queue    0x4               condvar.o
first_free          0x4               device.o
krnl_tasks          0x2               condvar.o
krnl_pcb            0x18              condvar.o
krnl_free           0x4               condvar.o
krnl_run_queue      0x4               condvar.o
krnl_rt_queue       0x4               condvar.o
krnl_schedule       0x2               condvar.o
krnl_delay_queue    0x4               condvar.o

Discarded input sections

 .text          0x0000000000000000        0x0 condvar.o
 .data          0x0000000000000000        0x0 condvar.o
 .bss           0x0000000000000000        0x0 condvar.o
 .text.hf_condinit
                0x0000000000000000       0x6c condvar.o
 .text.hf_conddestroy
                0x0000000000000000       0x68 condvar.o
 .text.hf_condwait
                0x0000000000000000       0xdc condvar.o
 .text.hf_condsignal
                0x0000000000000000       0x54 condvar.o
 .text.hf_condbroadcast
                0x0000000000000000       0x74 condvar.o
 .text          0x0000000000000000        0x0 crc.o
 .data          0x0000000000000000        0x0 crc.o
 .bss           0x0000000000000000        0x0 crc.o
 .text.crc16    0x0000000000000000       0x78 crc.o
 .text.crc32    0x0000000000000000       0x4c crc.o
 .text.crc64    0x0000000000000000       0x74 crc.o
 .srodata.cst8  0x0000000000000000        0x8 crc.o
 .comment       0x0000000000000000       0x12 crc.o
 .data          0x0000000000000000        0x0 crt0.o
 .bss           0x0000000000000000        0x0 crt0.o
 .text          0x0000000000000000        0x0 device.o
 .data          0x0000000000000000        0x0 device.o
 .bss           0x0000000000000000        0x0 device.o
 .text.hf_dev_open
                0x0000000000000000       0x44 device.o
 .text.hf_dev_close
                0x0000000000000000       0x40 device.o
 .text          0x0000000000000000        0x0 eth_enc28j60.o
 .data          0x0000000000000000        0x0 eth_enc28j60.o
 .bss           0x0000000000000000        0x0 eth_enc28j60.o
 .comment       0x0000000000000000       0x12 eth_enc28j60.o
 .text          0x0000000000000000        0x0 hal.o
 .data          0x0000000000000000        0x0 hal.o
 .bss           0x0000000000000000        0x0 hal.o
 .text.kbhit    0x0000000000000000       0x10 hal.o
 .text.getchar  0x0000000000000000       0x1c hal.o
 .text.dputchar
                0x0000000000000000        0xc hal.o
 .text.delay_ms
                0x0000000000000000      0x11c hal.o
 .text.delay_us
                0x0000000000000000      0x10c hal.o
 .text.led_set  0x0000000000000000        0x4 hal.o
 .text.button_get
                0x0000000000000000        0x8 hal.o
 .text.switch_get
                0x0000000000000000        0x8 hal.o
 .text._get_task_tp
                0x0000000000000000       0x30 hal.o
 .text._readcounter
                0x0000000000000000        0xc hal.o
 .text          0x0000000000000000        0x0 interrupt.o
 .data          0x0000000000000000        0x0 interrupt.o
 .bss           0x0000000000000000        0x0 interrupt.o
 .text._irq_mask_set
                0x0000000000000000       0x14 interrupt.o
 .text._irq_mask_clr
                0x0000000000000000       0x18 interrupt.o
 .text          0x0000000000000000        0x0 kprintf.o
 .data          0x0000000000000000        0x0 kprintf.o
 .bss           0x0000000000000000        0x0 kprintf.o
 .text.dprintf  0x0000000000000000      0x20c kprintf.o
 .text          0x0000000000000000        0x0 libc.o
 .data          0x0000000000000000        0x0 libc.o
 .bss           0x0000000000000000        0x0 libc.o
 .text.strcat   0x0000000000000000       0x38 libc.o
 .text.strncat  0x0000000000000000       0x58 libc.o
 .text.strncmp  0x0000000000000000       0x34 libc.o
 .text.strstr   0x0000000000000000       0x68 libc.o
 .text.strchr   0x0000000000000000       0x24 libc.o
 .text.strpbrk  0x0000000000000000       0x48 libc.o
 .text.strsep   0x0000000000000000       0x6c libc.o
 .text.memmove  0x0000000000000000       0x50 libc.o
 .text.memcmp   0x0000000000000000       0x50 libc.o
 .text.strtol   0x0000000000000000      0x118 libc.o
 .text.atoi     0x0000000000000000       0xb8 libc.o
 .text.atof     0x0000000000000000      0x1e8 libc.o
 .text.itoa     0x0000000000000000       0x50 libc.o
 .text.puts     0x0000000000000000       0x4c libc.o
 .text.gets     0x0000000000000000       0x68 libc.o
 .text.abs      0x0000000000000000       0x10 libc.o
 .text.random   0x0000000000000000       0x50 libc.o
 .text.srand    0x0000000000000000        0xc libc.o
 .text.sprintf  0x0000000000000000       0x48 libc.o
 .text.malloc   0x0000000000000000        0x8 libc.o
 .text.free     0x0000000000000000        0x8 libc.o
 .text.calloc   0x0000000000000000        0x8 libc.o
 .text.realloc  0x0000000000000000        0x8 libc.o
 .text.__muldsi3
                0x0000000000000000       0xe4 libc.o
 .text.__muldi3
                0x0000000000000000       0xac libc.o
 .text.__udivmodsi4
                0x0000000000000000       0x70 libc.o
 .text.__ashldi3
                0x0000000000000000       0x38 libc.o
 .text.__ashrdi3
                0x0000000000000000       0x2c libc.o
 .text.__lshrdi3
                0x0000000000000000       0x38 libc.o
 .text.__udivmoddi4
                0x0000000000000000       0x38 libc.o
 .text.__umoddi3
                0x0000000000000000       0x30 libc.o
 .text.__moddi3
                0x0000000000000000       0x9c libc.o
 .text.__divdi3
                0x0000000000000000       0x90 libc.o
 .text.__cmpsf2
                0x0000000000000000       0x40 libc.o
 .text.__lesf2  0x0000000000000000       0x40 libc.o
 .text.__gtsf2  0x0000000000000000       0x40 libc.o
 .text.__gesf2  0x0000000000000000       0x30 libc.o
 .text.__eqsf2  0x0000000000000000        0xc libc.o
 .text.__nesf2  0x0000000000000000        0xc libc.o
 .text.__divsf3
                0x0000000000000000       0xc8 libc.o
 .text.__negsf2
                0x0000000000000000       0x18 libc.o
 .text.__fixunssfsi
                0x0000000000000000       0x4c libc.o
 .text.__floatunsisf
                0x0000000000000000       0x7c libc.o
 .sdata.rand1   0x0000000000000000        0x4 libc.o
 .text          0x0000000000000000        0x0 list.o
 .data          0x0000000000000000        0x0 list.o
 .bss           0x0000000000000000        0x0 list.o
 .text.hf_list_init
                0x0000000000000000       0x2c list.o
 .text.hf_list_append
                0x0000000000000000       0x64 list.o
 .text.hf_list_insert
                0x0000000000000000       0x8c list.o
 .text.hf_list_remove
                0x0000000000000000       0x54 list.o
 .text.hf_list_get
                0x0000000000000000       0x28 list.o
 .text.hf_list_set
                0x0000000000000000       0x30 list.o
 .text.hf_list_count
                0x0000000000000000       0x20 list.o
 .comment       0x0000000000000000       0x12 list.o
 .text          0x0000000000000000        0x0 main.o
 .data          0x0000000000000000        0x0 main.o
 .bss           0x0000000000000000        0x0 main.o
 .text          0x0000000000000000        0x0 malloc.o
 .data          0x0000000000000000        0x0 malloc.o
 .bss           0x0000000000000000        0x0 malloc.o
 .text.hf_calloc
                0x0000000000000000       0x54 malloc.o
 .text.hf_realloc
                0x0000000000000000       0x90 malloc.o
 .text          0x0000000000000000        0x0 math.o
 .data          0x0000000000000000        0x0 math.o
 .bss           0x0000000000000000        0x0 math.o
 .text.xatan    0x0000000000000000      0x15c math.o
 .text.satan    0x0000000000000000      0x100 math.o
 .text.frexp.part.1
                0x0000000000000000       0x40 math.o
 .text.fabs     0x0000000000000000       0x4c math.o
 .text.frexp    0x0000000000000000       0x64 math.o
 .text.ldexp    0x0000000000000000      0x170 math.o
 .text.modf     0x0000000000000000       0xc8 math.o
 .text.sinus    0x0000000000000000      0x274 math.o
 .text.floor    0x0000000000000000       0xa8 math.o
 .text.exp.part.2
                0x0000000000000000      0x180 math.o
 .text.ceil     0x0000000000000000       0x30 math.o
 .text.sqrt     0x0000000000000000      0x228 math.o
 .text.exp      0x0000000000000000       0xac math.o
 .text.log      0x0000000000000000      0x250 math.o
 .text.log10    0x0000000000000000       0x2c math.o
 .text.pow      0x0000000000000000      0x1dc math.o
 .text.cos      0x0000000000000000       0x44 math.o
 .text.sin      0x0000000000000000        0xc math.o
 .text.tan      0x0000000000000000      0x264 math.o
 .text.atan     0x0000000000000000       0x68 math.o
 .text.atan2    0x0000000000000000      0x15c math.o
 .text.asin     0x0000000000000000      0x138 math.o
 .text.acos     0x0000000000000000       0x90 math.o
 .text.sinh     0x0000000000000000      0x330 math.o
 .text.cosh     0x0000000000000000      0x1f0 math.o
 .text.tanh     0x0000000000000000       0xb0 math.o
 .srodata.cst4  0x0000000000000000      0x128 math.o
 .comment       0x0000000000000000       0x12 math.o
 .text          0x0000000000000000        0x0 mutex.o
 .data          0x0000000000000000        0x0 mutex.o
 .bss           0x0000000000000000        0x0 mutex.o
 .text          0x0000000000000000        0x0 panic.o
 .data          0x0000000000000000        0x0 panic.o
 .bss           0x0000000000000000        0x0 panic.o
 .text          0x0000000000000000        0x0 processor.o
 .data          0x0000000000000000        0x0 processor.o
 .bss           0x0000000000000000        0x0 processor.o
 .text.hf_freecpu
                0x0000000000000000       0x9c processor.o
 .text.hf_cpuload
                0x0000000000000000      0x10c processor.o
 .text.hf_freemem
                0x0000000000000000        0xc processor.o
 .text.hf_ticktime
                0x0000000000000000        0xc processor.o
 .text          0x0000000000000000        0x0 queue.o
 .data          0x0000000000000000        0x0 queue.o
 .bss           0x0000000000000000        0x0 queue.o
 .text.hf_queue_destroy
                0x0000000000000000       0x50 queue.o
 .text.hf_queue_remtail
                0x0000000000000000       0x74 queue.o
 .text.hf_queue_set
                0x0000000000000000       0x80 queue.o
 .text          0x0000000000000000        0x0 ramdisk.o
 .data          0x0000000000000000        0x0 ramdisk.o
 .bss           0x0000000000000000        0x0 ramdisk.o
 .text          0x0000000000000000        0x0 ramdisk_test.o
 .data          0x0000000000000000        0x0 ramdisk_test.o
 .bss           0x0000000000000000        0x0 ramdisk_test.o
 .text          0x0000000000000000        0x0 scheduler.o
 .data          0x0000000000000000        0x0 scheduler.o
 .bss           0x0000000000000000        0x0 scheduler.o
 .text.sched_rr
                0x0000000000000000       0x74 scheduler.o
 .text.sched_lottery
                0x0000000000000000       0xd0 scheduler.o
 .text          0x0000000000000000        0x0 semaphore.o
 .data          0x0000000000000000        0x0 semaphore.o
 .bss           0x0000000000000000        0x0 semaphore.o
 .text.hf_seminit
                0x0000000000000000       0x84 semaphore.o
 .text.hf_semdestroy
                0x0000000000000000       0x68 semaphore.o
 .text.hf_semwait
                0x0000000000000000       0xdc semaphore.o
 .text.hf_sempost
                0x0000000000000000       0x7c semaphore.o
 .comment       0x0000000000000000       0x12 semaphore.o
 .text          0x0000000000000000        0x0 task.o
 .data          0x0000000000000000        0x0 task.o
 .bss           0x0000000000000000        0x0 task.o
 .text.hf_id    0x0000000000000000       0x98 task.o
 .text.hf_name  0x0000000000000000       0x78 task.o
 .text.hf_selfid
                0x0000000000000000       0x10 task.o
 .text.hf_selfname
                0x0000000000000000       0x10 task.o
 .text.hf_state
                0x0000000000000000       0x74 task.o
 .text.hf_jobs  0x0000000000000000       0xa0 task.o
 .text.hf_dlm   0x0000000000000000       0x74 task.o
 .text.hf_priorityset
                0x0000000000000000       0x90 task.o
 .text.hf_priorityget
                0x0000000000000000       0x7c task.o
 .text.hf_yield
                0x0000000000000000      0x16c task.o
 .text.hf_block
                0x0000000000000000      0x180 task.o
 .text.hf_resume
                0x0000000000000000      0x17c task.o
 .text.hf_kill  0x0000000000000000      0x344 task.o
 .text.hf_delay
                0x0000000000000000      0x2e4 task.o
 .text          0x0000000000000000        0x0 uhfs.o
 .data          0x0000000000000000        0x0 uhfs.o
 .bss           0x0000000000000000        0x0 uhfs.o
 .text.hf_setlabel
                0x0000000000000000       0x2c uhfs.o
 .text.hf_unlink
                0x0000000000000000        0x8 uhfs.o
 .text.hf_size  0x0000000000000000        0xc uhfs.o
 .text.hf_rename
                0x0000000000000000        0x8 uhfs.o
 .text.hf_chmod
                0x0000000000000000        0x8 uhfs.o
 .text.hf_touch
                0x0000000000000000        0x8 uhfs.o
 .text.hf_fopen
                0x0000000000000000        0x8 uhfs.o
 .text.hf_fclose
                0x0000000000000000        0x8 uhfs.o
 .text.hf_fread
                0x0000000000000000        0x8 uhfs.o
 .text.hf_fwrite
                0x0000000000000000        0x8 uhfs.o
 .text.hf_fseek
                0x0000000000000000        0x8 uhfs.o
 .text.hf_ftell
                0x0000000000000000        0xc uhfs.o
 .text.hf_feof  0x0000000000000000        0x8 uhfs.o

Memory Configuration

Name             Origin             Length             Attributes
rom              0x0000000000000000 0x0000000010000000
ram              0x0000000040000000 0x0000000010000000
ram_top          0x000000004ffffc00 0x0000000000000400
*default*        0x0000000000000000 0xffffffffffffffff

Linker script and memory map

                0x000000004ffffffc                _stack = 0x4ffffffc
                0x0000000000000000                . = 0x0

.text           0x0000000040000000     0x4cdc
 *(.text.init)
                0x0000000040000000                _text = .
 *(.text)
 .text          0x0000000040000000      0x2c8 crt0.o
                0x0000000040000000                _entry
                0x0000000040000100                _isr
                0x00000000400001ec                _interrupt_set
                0x0000000040000204                setjmp
                0x0000000040000240                longjmp
                0x000000004000027c                _restoreexec
 *(.text.*)
 .text.hf_dev_read
                0x00000000400002c8       0x44 device.o
                0x00000000400002c8                hf_dev_read
 .text.hf_dev_write
                0x000000004000030c       0x44 device.o
                0x000000004000030c                hf_dev_write
 .text.hf_dev_ioctl
                0x0000000040000350       0x10 device.o
                0x0000000040000350                hf_dev_ioctl
 .text.putchar  0x0000000040000360       0x1c hal.o
                0x0000000040000360                putchar
 .text._hardware_init
                0x000000004000037c        0x4 hal.o
                0x000000004000037c                _hardware_init
 .text._vm_init
                0x0000000040000380       0x30 hal.o
                0x0000000040000380                _vm_init
 .text._sched_init
                0x00000000400003b0        0xc hal.o
                0x00000000400003b0                _sched_init
 .text._timer_init
                0x00000000400003bc       0x50 hal.o
                0x00000000400003bc                _timer_init
 .text._irq_init
                0x000000004000040c        0xc hal.o
                0x000000004000040c                _irq_init
 .text._device_init
                0x0000000040000418        0xc hal.o
                0x0000000040000418                _device_init
 .text._task_init
                0x0000000040000424        0xc hal.o
                0x0000000040000424                _task_init
 .text._set_task_sp
                0x0000000040000430       0x34 hal.o
                0x0000000040000430                _set_task_sp
 .text._get_task_sp
                0x0000000040000464       0x28 hal.o
                0x0000000040000464                _get_task_sp
 .text._set_task_tp
                0x000000004000048c       0x34 hal.o
                0x000000004000048c                _set_task_tp
 .text._cpu_idle
                0x00000000400004c0        0x4 hal.o
                0x00000000400004c0                _cpu_idle
 .text._read_us
                0x00000000400004c4       0x74 hal.o
                0x00000000400004c4                _read_us
 .text._timer_reset
                0x0000000040000538       0x40 hal.o
                0x0000000040000538                _timer_reset
 .text._panic   0x0000000040000578        0xc hal.o
                0x0000000040000578                _panic
 .text._irq_register
                0x0000000040000584       0x30 interrupt.o
                0x0000000040000584                _irq_register
 .text._irq_handler
                0x00000000400005b4       0x70 interrupt.o
                0x00000000400005b4                _irq_handler
 .text._exception_handler
                0x0000000040000624        0x4 interrupt.o
                0x0000000040000624                _exception_handler
 .text.kitoa.part.0
                0x0000000040000628      0x134 kprintf.o
 .text.kprintf  0x000000004000075c      0x1c8 kprintf.o
                0x000000004000075c                kprintf
 .text.prints   0x0000000040000924      0x17c libc.o
 .text.printi   0x0000000040000aa0      0x190 libc.o
 .text.itoa.part.0
                0x0000000040000c30       0xdc libc.o
 .text.print    0x0000000040000d0c      0x40c libc.o
 .text.__udivmoddi4.part.1
                0x0000000040001118       0xe0 libc.o
 .text.strcpy   0x00000000400011f8       0x1c libc.o
                0x00000000400011f8                strcpy
 .text.strncpy  0x0000000040001214       0x68 libc.o
                0x0000000040001214                strncpy
 .text.strcmp   0x000000004000127c       0x2c libc.o
                0x000000004000127c                strcmp
 .text.strlen   0x00000000400012a8       0x2c libc.o
                0x00000000400012a8                strlen
 .text.strtok   0x00000000400012d4       0x94 libc.o
                0x00000000400012d4                strtok
 .text.memcpy   0x0000000040001368       0x24 libc.o
                0x0000000040001368                memcpy
 .text.memset   0x000000004000138c       0x20 libc.o
                0x000000004000138c                memset
 .text.printf   0x00000000400013ac       0x48 libc.o
                0x00000000400013ac                printf
 .text.hexdump  0x00000000400013f4      0x12c libc.o
                0x00000000400013f4                hexdump
 .text.__mulsi3
                0x0000000040001520       0x30 libc.o
                0x0000000040001520                __mulsi3
 .text.__divsi3
                0x0000000040001550       0x80 libc.o
                0x0000000040001550                __divsi3
 .text.__modsi3
                0x00000000400015d0       0x70 libc.o
                0x00000000400015d0                __modsi3
 .text.__udivsi3
                0x0000000040001640       0x68 libc.o
                0x0000000040001640                __udivsi3
 .text.__umodsi3
                0x00000000400016a8       0x54 libc.o
                0x00000000400016a8                __umodsi3
 .text.__udivdi3
                0x00000000400016fc       0x34 libc.o
                0x00000000400016fc                __udivdi3
 .text.__addsf3
                0x0000000040001730      0x124 libc.o
                0x0000000040001730                __addsf3
 .text.__subsf3
                0x0000000040001854       0x28 libc.o
                0x0000000040001854                __subsf3
 .text.__ltsf2  0x000000004000187c       0x30 libc.o
                0x000000004000187c                __ltsf2
 .text.__mulsf3
                0x00000000400018ac      0x134 libc.o
                0x00000000400018ac                __mulsf3
 .text.__fixsfsi
                0x00000000400019e0       0x4c libc.o
                0x00000000400019e0                __fixsfsi
 .text.__floatsisf
                0x0000000040001a2c       0x78 libc.o
                0x0000000040001a2c                __floatsisf
 .text.idletask
                0x0000000040001aa4       0x38 main.o
 .text.startup.main
                0x0000000040001adc      0x290 main.o
                0x0000000040001adc                main
 .text.hf_free  0x0000000040001d6c       0x64 malloc.o
                0x0000000040001d6c                hf_free
 .text.hf_malloc
                0x0000000040001dd0      0x100 malloc.o
                0x0000000040001dd0                hf_malloc
 .text.heapinit
                0x0000000040001ed0       0x4c malloc.o
                0x0000000040001ed0                heapinit
 .text.hf_mtxinit
                0x0000000040001f1c        0x8 mutex.o
                0x0000000040001f1c                hf_mtxinit
 .text.hf_mtxlock
                0x0000000040001f24       0x54 mutex.o
                0x0000000040001f24                hf_mtxlock
 .text.hf_mtxunlock
                0x0000000040001f78        0x8 mutex.o
                0x0000000040001f78                hf_mtxunlock
 .text.panic    0x0000000040001f80      0x15c panic.o
                0x0000000040001f80                panic
 .text.hf_schedlock
                0x00000000400020dc       0x20 processor.o
                0x00000000400020dc                hf_schedlock
 .text.hf_queue_create
                0x00000000400020fc       0x78 queue.o
                0x00000000400020fc                hf_queue_create
 .text.hf_queue_count
                0x0000000040002174        0x8 queue.o
                0x0000000040002174                hf_queue_count
 .text.hf_queue_addtail
                0x000000004000217c       0x88 queue.o
                0x000000004000217c                hf_queue_addtail
 .text.hf_queue_remhead
                0x0000000040002204       0x70 queue.o
                0x0000000040002204                hf_queue_remhead
 .text.hf_queue_get
                0x0000000040002274       0x64 queue.o
                0x0000000040002274                hf_queue_get
 .text.hf_queue_swap
                0x00000000400022d8       0xc0 queue.o
                0x00000000400022d8                hf_queue_swap
 .text.ramdisk_open
                0x0000000040002398        0x8 ramdisk.o
                0x0000000040002398                ramdisk_open
 .text.ramdisk_read
                0x00000000400023a0       0xc4 ramdisk.o
                0x00000000400023a0                ramdisk_read
 .text.ramdisk_write
                0x0000000040002464       0xcc ramdisk.o
                0x0000000040002464                ramdisk_write
 .text.ramdisk_close
                0x0000000040002530        0x8 ramdisk.o
                0x0000000040002530                ramdisk_close
 .text.ramdisk_ioctl
                0x0000000040002538      0x178 ramdisk.o
                0x0000000040002538                ramdisk_ioctl
 .text.app_main
                0x00000000400026b0      0x6e0 ramdisk_test.o
                0x00000000400026b0                app_main
 .text.run_queue_next
                0x0000000040002d90       0x74 scheduler.o
 .text.dispatch_isr
                0x0000000040002e04      0x228 scheduler.o
                0x0000000040002e04                dispatch_isr
 .text.sched_priorityrr
                0x000000004000302c      0x11c scheduler.o
                0x000000004000302c                sched_priorityrr
 .text.sched_rma
                0x0000000040003148      0x1d8 scheduler.o
                0x0000000040003148                sched_rma
 .text.hf_spawn
                0x0000000040003320      0x2dc task.o
                0x0000000040003320                hf_spawn
 .text.test_pot
                0x00000000400035fc       0x88 uhfs.o
 .text.getfreeblock
                0x0000000040003684      0x130 uhfs.o
 .text.searchdirectory
                0x00000000400037b4      0x270 uhfs.o
 .text.hf_mkfs  0x0000000040003a24      0x47c uhfs.o
                0x0000000040003a24                hf_mkfs
 .text.hf_mount
                0x0000000040003ea0      0x168 uhfs.o
                0x0000000040003ea0                hf_mount
 .text.hf_umount
                0x0000000040004008       0x68 uhfs.o
                0x0000000040004008                hf_umount
 .text.hf_getfree
                0x0000000040004070       0xc8 uhfs.o
                0x0000000040004070                hf_getfree
 .text.hf_getlabel
                0x0000000040004138       0x2c uhfs.o
                0x0000000040004138                hf_getlabel
 .text.hf_mkdir
                0x0000000040004164      0x448 uhfs.o
                0x0000000040004164                hf_mkdir
 .text.hf_opendir
                0x00000000400045ac      0x110 uhfs.o
                0x00000000400045ac                hf_opendir
 .text.hf_closedir
                0x00000000400046bc       0x40 uhfs.o
                0x00000000400046bc                hf_closedir
 .text.hf_readdir
                0x00000000400046fc      0x220 uhfs.o
                0x00000000400046fc                hf_readdir
 .text.hf_rmdir
                0x000000004000491c      0x3c0 uhfs.o
                0x000000004000491c                hf_rmdir
                0x0000000040004cdc                _etext = .

.rodata         0x0000000040004cdc     0x130c
                0x0000000040004cdc                _rodata = .
 *(.rdata)
 *(.rodata)
 *(.rodata.*)
 .rodata.str1.4
                0x0000000040004cdc       0x55 device.o
 *fill*         0x0000000040004d31        0x3 
 .rodata.str1.4
                0x0000000040004d34       0x7b hal.o
 *fill*         0x0000000040004daf        0x1 
 .rodata.str1.4
                0x0000000040004db0       0x1f kprintf.o
 *fill*         0x0000000040004dcf        0x1 
 .rodata.print  0x0000000040004dd0      0x12c libc.o
 .rodata.str1.4
                0x0000000040004efc       0x5b libc.o
                                         0x63 (size before relaxing)
 *fill*         0x0000000040004f57        0x1 
 .rodata.str1.4
                0x0000000040004f58      0x1b4 main.o
                                        0x1be (size before relaxing)
 .rodata.panic  0x000000004000510c       0x3c panic.o
 .rodata.str1.4
                0x0000000040005148      0x1bc panic.o
 .rodata.ramdisk_ioctl
                0x0000000040005304       0x18 ramdisk.o
 .rodata.str1.4
                0x000000004000531c       0x97 ramdisk.o
 *fill*         0x00000000400053b3        0x1 
 .rodata.str1.4
                0x00000000400053b4      0x4a2 ramdisk_test.o
 *fill*         0x0000000040005856        0x2 
 .rodata.str1.4
                0x0000000040005858      0x1cb task.o
 *fill*         0x0000000040005a23        0x1 
 .rodata.str1.4
                0x0000000040005a24      0x5c4 uhfs.o
                                        0x5c2 (size before relaxing)
                0x0000000040005fe8                _erodata = .

.srodata.cst4   0x0000000040005fe8       0x14
 .srodata.cst4  0x0000000040005fe8       0x14 libc.o

.rela.dyn       0x0000000040005ffc        0x0
 .rela.text.hf_condinit
                0x0000000040005ffc        0x0 condvar.o
 .rela.text.hf_conddestroy
                0x0000000040005ffc        0x0 condvar.o
 .rela.text.hf_condwait
                0x0000000040005ffc        0x0 condvar.o
 .rela.text.hf_condsignal
                0x0000000040005ffc        0x0 condvar.o
 .rela.text.hf_condbroadcast
                0x0000000040005ffc        0x0 condvar.o
 .rela.text     0x0000000040005ffc        0x0 condvar.o
 .rela.text.hf_dev_open
                0x0000000040005ffc        0x0 condvar.o
 .rela.text.hf_dev_read
                0x0000000040005ffc        0x0 condvar.o
 .rela.text.hf_dev_write
                0x0000000040005ffc        0x0 condvar.o
 .rela.text.hf_dev_close
                0x0000000040005ffc        0x0 condvar.o
 .rela.text.delay_ms
                0x0000000040005ffc        0x0 condvar.o
 .rela.text.delay_us
                0x0000000040005ffc        0x0 condvar.o
 .rela.text._vm_init
                0x0000000040005ffc        0x0 condvar.o
 .rela.text._sched_init
                0x0000000040005ffc        0x0 condvar.o
 .rela.text._timer_init
                0x0000000040005ffc        0x0 condvar.o
 .rela.text._irq_init
                0x0000000040005ffc        0x0 condvar.o
 .rela.text._device_init
                0x0000000040005ffc        0x0 condvar.o
 .rela.text._task_init
                0x0000000040005ffc        0x0 condvar.o
 .rela.text._set_task_sp
                0x0000000040005ffc        0x0 condvar.o
 .rela.text._get_task_sp
                0x0000000040005ffc        0x0 condvar.o
 .rela.text._set_task_tp
                0x0000000040005ffc        0x0 condvar.o
 .rela.text._get_task_tp
                0x0000000040005ffc        0x0 condvar.o
 .rela.text._read_us
                0x0000000040005ffc        0x0 condvar.o
 .rela.text._timer_reset
                0x0000000040005ffc        0x0 condvar.o
 .rela.text._irq_handler
                0x0000000040005ffc        0x0 condvar.o
 .rela.text.kitoa.part.0
                0x0000000040005ffc        0x0 condvar.o
 .rela.text.malloc
                0x0000000040005ffc        0x0 condvar.o
 .rela.text.free
                0x0000000040005ffc        0x0 condvar.o
 .rela.text.calloc
                0x0000000040005ffc        0x0 condvar.o
 .rela.text.realloc
                0x0000000040005ffc        0x0 condvar.o
 .rela.text.hf_list_init
                0x0000000040005ffc        0x0 condvar.o
 .rela.text.hf_list_append
                0x0000000040005ffc        0x0 condvar.o
 .rela.text.hf_list_insert
                0x0000000040005ffc        0x0 condvar.o
 .rela.text.hf_list_remove
                0x0000000040005ffc        0x0 condvar.o
 .rela.text.idletask
                0x0000000040005ffc        0x0 condvar.o
 .rela.text.startup.main
                0x0000000040005ffc        0x0 condvar.o
 .rela.text.hf_free
                0x0000000040005ffc        0x0 condvar.o
 .rela.text.hf_malloc
                0x0000000040005ffc        0x0 condvar.o
 .rela.text.heapinit
                0x0000000040005ffc        0x0 condvar.o
 .rela.text.panic
                0x0000000040005ffc        0x0 condvar.o
 .rela.text.hf_schedlock
                0x0000000040005ffc        0x0 condvar.o
 .rela.text.hf_freecpu
                0x0000000040005ffc        0x0 condvar.o
 .rela.text.hf_cpuload
                0x0000000040005ffc        0x0 condvar.o
 .rela.text.hf_freemem
                0x0000000040005ffc        0x0 condvar.o
 .rela.text.hf_ticktime
                0x0000000040005ffc        0x0 condvar.o
 .rela.text.app_main
                0x0000000040005ffc        0x0 condvar.o
 .rela.text.run_queue_next
                0x0000000040005ffc        0x0 condvar.o
 .rela.text.dispatch_isr
                0x0000000040005ffc        0x0 condvar.o
 .rela.text.sched_rr
                0x0000000040005ffc        0x0 condvar.o
 .rela.text.sched_lottery
                0x0000000040005ffc        0x0 condvar.o
 .rela.text.sched_priorityrr
                0x0000000040005ffc        0x0 condvar.o
 .rela.text.sched_rma
                0x0000000040005ffc        0x0 condvar.o
 .rela.text.hf_semwait
                0x0000000040005ffc        0x0 condvar.o
 .rela.text.hf_id
                0x0000000040005ffc        0x0 condvar.o
 .rela.text.hf_name
                0x0000000040005ffc        0x0 condvar.o
 .rela.text.hf_selfid
                0x0000000040005ffc        0x0 condvar.o
 .rela.text.hf_selfname
                0x0000000040005ffc        0x0 condvar.o
 .rela.text.hf_state
                0x0000000040005ffc        0x0 condvar.o
 .rela.text.hf_jobs
                0x0000000040005ffc        0x0 condvar.o
 .rela.text.hf_dlm
                0x0000000040005ffc        0x0 condvar.o
 .rela.text.hf_priorityset
                0x0000000040005ffc        0x0 condvar.o
 .rela.text.hf_priorityget
                0x0000000040005ffc        0x0 condvar.o
 .rela.text.hf_spawn
                0x0000000040005ffc        0x0 condvar.o
 .rela.text.hf_yield
                0x0000000040005ffc        0x0 condvar.o
 .rela.text.hf_block
                0x0000000040005ffc        0x0 condvar.o
 .rela.text.hf_resume
                0x0000000040005ffc        0x0 condvar.o
 .rela.text.hf_kill
                0x0000000040005ffc        0x0 condvar.o
 .rela.text.hf_delay
                0x0000000040005ffc        0x0 condvar.o

.data           0x0000000040005ffc       0x14
                0x0000000040005ffc                _data = .
 *(.data)
 *(.data.*)
                0x00000000400067fc                _gp = (. + 0x800)
 *(.sdata)
 *(.sdata.*)
 .sdata.oops.1317
                0x0000000040005ffc        0x4 main.o
 .sdata.rampos  0x0000000040006000        0x4 ramdisk.o
 .sdata.lastpos
                0x0000000040006004        0x4 ramdisk.o
                0x0000000040006010                . = ALIGN (0x10)
 *fill*         0x0000000040006008        0x8 
                0x0000000040006010                _edata = .

.bss            0x0000000040006010    0x7b408
                0x0000000040006010                _bss_start = .
 *(.sbss)
 *(.sbss.*)
 .sbss.lastcount.1511
                0x0000000040006010        0x4 hal.o
 .sbss.tref.1524
                0x0000000040006014        0x4 hal.o
 .sbss.tval2.1523
                0x0000000040006018        0x4 hal.o
 .sbss.last.1268
                0x000000004000601c        0x4 libc.o
 .sbss.krnl_malloc
                0x0000000040006020        0x4 malloc.o
 .sbss.ramarena
                0x0000000040006024        0x4 ramdisk.o
 .sbss.dir_blk.1745
                0x0000000040006028        0x4 uhfs.o
 .sbss.chain_blk.1744
                0x000000004000602c        0x4 uhfs.o
 .sbss.dir_blk_next.1746
                0x0000000040006030        0x4 uhfs.o
 *(.bss)
 *(.bss.*)
 .bss.isr       0x0000000040006034       0x80 interrupt.o
 .bss.buf.1150  0x00000000400060b4       0x20 kprintf.o
 .bss.ramdisk_info
                0x00000000400060d4       0x10 ramdisk.o
                0x00000000400060e4                . = ALIGN (0x4)
                0x00000000400060e4                _bss_end = .
 COMMON         0x00000000400060e4    0x7b32c condvar.o
                0x00000000400060e4                krnl_tcb
                0x00000000400072b4                krnl_heap
                0x00000000400813d4                krnl_current_task
                0x00000000400813d8                krnl_task
                0x00000000400813dc                krnl_event_queue
                0x00000000400813e0                krnl_tasks
                0x00000000400813e4                krnl_pcb
                0x00000000400813fc                krnl_free
                0x0000000040081400                krnl_run_queue
                0x0000000040081404                krnl_rt_queue
                0x0000000040081408                krnl_schedule
                0x000000004008140c                krnl_delay_queue
 COMMON         0x0000000040081410        0x8 device.o
                0x0000000040081410                last_free
                0x0000000040081414                first_free
                0x0000000040081418                _end = .
LOAD condvar.o
LOAD crc.o
LOAD crt0.o
LOAD device.o
LOAD eth_enc28j60.o
LOAD hal.o
LOAD interrupt.o
LOAD kprintf.o
LOAD libc.o
LOAD list.o
LOAD main.o
LOAD malloc.o
LOAD math.o
LOAD mutex.o
LOAD panic.o
LOAD processor.o
LOAD queue.o
LOAD ramdisk.o
LOAD ramdisk_test.o
LOAD scheduler.o
LOAD semaphore.o
LOAD task.o
LOAD uhfs.o
OUTPUT(image.elf elf32-littleriscv)

.comment        0x0000000000000000       0x11
 .comment       0x0000000000000000       0x11 condvar.o
                                         0x12 (size before relaxing)
 .comment       0x0000000000000011       0x12 device.o
 .comment       0x0000000000000011       0x12 hal.o
 .comment       0x0000000000000011       0x12 interrupt.o
 .comment       0x0000000000000011       0x12 kprintf.o
 .comment       0x0000000000000011       0x12 libc.o
 .comment       0x0000000000000011       0x12 main.o
 .comment       0x0000000000000011       0x12 malloc.o
 .comment       0x0000000000000011       0x12 mutex.o
 .comment       0x0000000000000011       0x12 panic.o
 .comment       0x0000000000000011       0x12 processor.o
 .comment       0x0000000000000011       0x12 queue.o
 .comment       0x0000000000000011       0x12 ramdisk.o
 .comment       0x0000000000000011       0x12 ramdisk_test.o
 .comment       0x0000000000000011       0x12 scheduler.o
 .comment       0x0000000000000011       0x12 task.o
 .comment       0x0000000000000011       0x12 uhfs.o
